(dp1
S'multi_page_rank_rev'
p2
(lp3
F0.10875734178267299
aF0.026274270971014577
aF0.040050330386614923
aF0.010897517951428336
aF0.019945895106727236
aF0.026787164152845669
aF0.0087551343667695257
aF0.011943841839233225
aF0.054911626680298274
aF0.017383838189825158
aF0.0087551343667695257
aF0.025939371763660048
aF0.009482708405236932
aF0.023632674212645012
aF0.020296901326566211
aF0.035520145958865254
aF0.035225865137956947
aF0.008768889470054669
aF0.0093633593698857747
aF0.019532253894097122
aF0.016821895307517699
aF0.008768889470054669
aF0.008768889470054669
aF0.013495798889337801
aF0.01201116273270424
aF0.0092346516572120174
aF0.008768889470054669
aF0.008768889470054669
aF0.0088329450112699711
aF0.008833728988395682
aF0.0089891445875506255
aF0.043487065222425306
aF0.054766230892906692
aF0.044100575950815415
aF0.20461827676719066
aF0.008754350389643813
aF0.008754350389643813
asS'degree'
p4
(lp5
I10
aI8
aI6
aI5
aI5
aI10
aI2
aI10
aI12
aI6
aI2
aI6
aI3
aI6
aI10
aI13
aI13
aI3
aI9
aI12
aI11
aI3
aI3
aI11
aI8
aI6
aI3
aI3
aI10
aI8
aI9
aI24
aI17
aI26
aI13
aI16
aI34
asS'node_ids'
p6
(lp7
I1
aI2
aI3
aI4
aI5
aI6
aI7
aI8
aI9
aI10
aI11
aI12
aI13
aI14
aI15
aI16
aI17
aI18
aI19
aI20
aI21
aI22
aI23
aI24
aI25
aI26
aI27
aI28
aI29
aI30
aI31
aI32
aI33
aI34
aI35
aI36
aI37
asS'between_centr'
p8
(lp9
F3.2606837606837606
aF2.2606837606837606
aF35.444444444444443
aF0.40000000000000002
aF0
aF5.9166666666666661
aF0
aF13.705555555555556
aF13.705555555555556
aF13.5
aF0
aF0.8717948717948717
aF0.038461538461538464
aF2
aF12.416666666666666
aF23.222222222222221
aF38.677777777777777
aF0.094017094017094016
aF2.2785409035409034
aF10.441666666666663
aF12.347222222222223
aF0.094017094017094016
aF0.094017094017094016
aF12.103540903540903
aF9.9539682539682541
aF7.5888888888888895
aF0.094017094017094016
aF0.094017094017094016
aF12.12063492063492
aF0.66666666666666663
aF4.4539682539682541
aF40.264652014652022
aF57.195207570207572
aF145.19444444444446
aF0
aF0
aF0
asS'biomass'
p10
(lp11
F2112
aF373
aF1258
aF39
aF43
aF87
aF0.001
aF38
aF1073
aF108
aF0.001
aF293
aF1986
aF220
aF700
aF4089
aF6962
aF0.001
aF342
aF2136
aF381
aF0.001
aF0.001
aF570
aF236
aF100
aF0.001
aF0.001
aF172
aF68
aF211
aF26915
aF76080
aF8309
aF0
aF0
aF0
asS'close_centr_undir'
p12
(lp13
F0.58064516129032251
aF0.5625
aF0.53731343283582089
aF0.52941176470588236
aF0.53731343283582089
aF0.58064516129032251
aF0.50704225352112675
aF0.5714285714285714
aF0.5714285714285714
aF0.54545454545454553
aF0.5
aF0.54545454545454553
aF0.52173913043478259
aF0.53731343283582089
aF0.5714285714285714
aF0.59999999999999998
aF0.61016949152542377
aF0.52173913043478259
aF0.5625
aF0.5901639344262295
aF0.58064516129032251
aF0.52173913043478259
aF0.52173913043478259
aF0.5901639344262295
aF0.5625
aF0.54545454545454553
aF0.52173913043478259
aF0.52173913043478259
aF0.58064516129032251
aF0.5625
aF0.5714285714285714
aF0.73469387755102034
aF0.61016949152542377
aF0.70588235294117641
aF0.59999999999999998
aF0.62068965517241381
aF0.94736842105263153
asS'between_centr_undir'
p14
(lp15
F7.6295128847760409
aF2.3287610050767942
aF0.052631578947368418
aF0.052631578947368418
aF0.052631578947368418
aF3.4804093567251453
aF0
aF2.2304093567251462
aF2.2304093567251462
aF2.3462823725981616
aF0
aF0.86620879120879113
aF0.14835164835164835
aF0.26785714285714285
aF3.6607142857142856
aF7.3742063492063492
aF9.5923141186299077
aF0.43014989396568337
aF2.550784814600604
aF4.760077276524644
aF4.7631474519632411
aF0.43014989396568337
aF0.43014989396568337
aF5.7276227427543214
aF2.2880012531328315
aF0.81612364243943192
aF0.43014989396568337
aF0.43014989396568337
aF3.0931599832915624
aF1.3439536340852132
aF2.0836361737677529
aF62.149051314182906
aF17.022610211426002
aF39.236017126148703
aF25.952380952380949
aF32.265329991645778
aF253.48402255639087
asS'close_centr'
p16
(lp17
F0.40500000000000003
aF0.36819172113289761
aF0.29932950191570884
aF0.31565656565656564
aF0.29425612052730699
aF0.32756813417190778
aF0.027777777777777776
aF0.32756813417190778
aF0.32756813417190778
aF0.29932950191570884
aF0.027777777777777776
aF0.26825396825396824
aF0.19766081871345029
aF0.25531045751633985
aF0.29425612052730699
aF0.32150205761316869
aF0.32756813417190778
aF0.055555555555555552
aF0.25531045751633985
aF0.34722222222222221
aF0.32150205761316869
aF0.055555555555555552
aF0.055555555555555552
aF0.32150205761316869
aF0.29932950191570884
aF0.28460837887067397
aF0.055555555555555552
aF0.055555555555555552
aF0.28935185185185186
aF0.28935185185185186
aF0.28935185185185186
aF0.21976090014064698
aF0.24801587301587302
aF0.36938534278959811
aF0.53731343283582089
aF0
aF0
asS'out_degree'
p18
(lp19
I9
aI7
aI5
aI4
aI4
aI6
aI1
aI6
aI7
aI4
aI1
aI5
aI2
aI5
aI7
aI9
aI9
aI2
aI4
aI8
aI7
aI2
aI2
aI7
aI5
aI3
aI2
aI2
aI4
aI4
aI4
aI3
aI6
aI9
aI13
aI0
aI0
asS'impact_scores'
p20
(lp21
F0.21343939017736921
aF0.1816191205534313
aF0.10731035868323438
aF0.11559604859538361
aF0.10821663114481464
aF0.067346022927528754
aF0.049934340165753974
aF0.11128984214699601
aF0.14103578527926991
aF0.10483240705951899
aF0.12001774108150001
aF0.15278209918440566
aF0.12512170679227064
aF0.11973545119288605
aF0.11078763206396211
aF0.14775909094010986
aF0.12384549593488767
aF0.12448219724507854
aF0.12461783564226062
aF0.099353367764880227
aF0.092220444733429927
aF0.12448219724507854
aF0.12448219724507854
aF0.13169260687964116
aF0.13167462453921921
aF0.1240567683109001
aF0.12448219724507854
aF0.12448219724507854
aF0.12415815788919851
aF0.12368151213811784
aF0.12335656221722742
aF0.11214643997005333
aF0.15746015186690429
aF0.16433889593610798
aF0.097455170218051709
aF0.12448219724507854
aF0.12448219724507854
asS'in_degree'
p22
(lp23
I1
aI1
aI1
aI1
aI1
aI4
aI1
aI4
aI5
aI2
aI1
aI1
aI1
aI1
aI3
aI4
aI4
aI1
aI5
aI4
aI4
aI1
aI1
aI4
aI3
aI3
aI1
aI1
aI6
aI4
aI5
aI21
aI11
aI17
aI0
aI16
aI34
asS'page_rank'
p24
(lp25
F0.010728292534428649
aF0.010728292534428649
aF0.030905924869593041
aF0.016404825206224469
aF0.015323009568080566
aF0.02089507394693197
aF0.011083104652827934
aF0.021681258200341086
aF0.024677549986286462
aF0.016137367216601427
aF0.013499061636222897
aF0.010728292534428649
aF0.010728292534428649
aF0.016257657692374267
aF0.020845096230267181
aF0.023376268657627219
aF0.022206256059076973
aF0.010728292534428649
aF0.023752148437792907
aF0.023485480206184704
aF0.025432839912280243
aF0.010728292534428649
aF0.010728292534428649
aF0.017564399180153203
aF0.016906015080459118
aF0.016906015080459118
aF0.010728292534428649
aF0.010728292534428649
aF0.027138216980255501
aF0.020659963884517102
aF0.022090828690804393
aF0.073533128435112088
aF0.043676637551369281
aF0.067070328599145995
aF0.010069908434734563
aF0.096715311370224349
aF0.16515169142419403
asS'throughflow'
p26
(lp27
F195627.29999999999
aF47744.870000000003
aF174761.39999999999
aF9651.7199999999993
aF37305.080000000002
aF40020
aF0.091999999999999998
aF5838.3199999999997
aF60216.755999999994
aF3278.8800000000001
aF0.091999999999999998
aF26965.84
aF1644.4079999999999
aF76304.800000000003
aF18032
aF26333.252
aF44835.284
aF9.9999999999999995e-08
aF390.44799999999998
aF19651.200000000001
aF10200.132000000001
aF9.9999999999999995e-08
aF9.9999999999999995e-08
aF1898.8799999999999
aF781.72400000000005
aF1932
aF9.9999999999999995e-08
aF9.9999999999999995e-08
aF395.60000000000002
aF444.17599999999999
aF1319.924
aF176289.95200000002
aF105390.874
aF52792.081999999995
aI0
aF16489.360000500001
aF294709
asS'multi_page_rank'
p28
(lp29
F0.01548898877904754
aF0.011414564436145044
aF0.071263599096782204
aF0.016427064853939896
aF0.023024894341792692
aF0.019788418506221657
aF0.010100528625143497
aF0.011384349794780743
aF0.023972883117937983
aF0.011343306423303228
aF0.010188538232276372
aF0.010841812866056783
aF0.010143879066578038
aF0.058726941324489988
aF0.018998463241853086
aF0.026410792621855056
aF0.025628384756185354
aF0.010099293615014285
aF0.010431397097325375
aF0.012918873038481146
aF0.014620969046446757
aF0.010099293615014285
aF0.010099293615014285
aF0.011517515795656056
aF0.010711471863345244
aF0.011399908566310547
aF0.010099293615014285
aF0.010099293615014285
aF0.011338914196909321
aF0.012977018333438669
aF0.012819253826349176
aF0.072608041595954895
aF0.079091705417228736
aF0.040744415093754482
aF0.010098436202484212
aF0.047074863327446169
aF0.21600333843940872
as.