(dp1
S'multi_page_rank_rev'
p2
(lp3
F0.083984013545790576
aF0.023765509760320463
aF0.035540163165556006
aF0.0097945669813795776
aF0.022915532285495577
aF0.036254108844531001
aF0.0093496425531824079
aF0.0090203408890737625
aF0.052512415132656504
aF0.015153548780108916
aF0.0080500438178982177
aF0.030059084393828393
aF0.0096345203678818974
aF0.012813237533596138
aF0.028653488706020878
aF0.033644091665934059
aF0.075220742117353079
aF0.0080724762728335772
aF0.0089569310097375975
aF0.021224391066801421
aF0.02015911616048504
aF0.01111013659327684
aF0.0088513070612733832
aF0.01110811769661019
aF0.0085901558660595959
aF0.0091907120618655302
aF0.0080922289710626243
aF0.0081338458474369633
aF0.008166131875314819
aF0.0081668357019535689
aF0.0081885643302501785
aF0.038283117001766911
aF0.056170594945339096
aF0.071188046484664008
aF0.17388356053014231
aF0.0080493399912594677
aF0.0080493399912594677
asS'degree'
p4
(lp5
I11
aI9
aI6
aI5
aI6
aI12
aI11
aI11
aI15
aI7
aI2
aI6
aI3
aI5
aI10
aI15
aI16
aI3
aI11
aI10
aI16
aI11
aI12
aI10
aI8
aI8
aI7
aI7
aI13
aI9
aI12
aI30
aI16
aI40
aI10
aI13
aI34
asS'node_ids'
p6
(lp7
I1
aI2
aI3
aI4
aI5
aI6
aI7
aI8
aI9
aI10
aI11
aI12
aI13
aI14
aI15
aI16
aI17
aI18
aI19
aI20
aI21
aI22
aI23
aI24
aI25
aI26
aI27
aI28
aI29
aI30
aI31
aI32
aI33
aI34
aI35
aI36
aI37
asS'between_centr'
p8
(lp9
F1.7523809523809524
aF1.3773809523809524
aF52
aF0.22727272727272729
aF6.75
aF13.152254689754688
aF2.0054292929292927
aF10.785010822510824
aF12.232927489177493
aF16
aF0
aF0.59166666666666679
aF0.050000000000000003
aF0
aF3.5555555555555558
aF17.763888888888889
aF29.192189754689753
aF0.13333333333333333
aF3.1700396825396822
aF4.8469516594516584
aF29.074900793650787
aF6.4987103174603176
aF4.2068722943722952
aF6.5267135642135656
aF4.8088203463203456
aF1.931277056277056
aF0.54503968253968249
aF0.0625
aF0.73670634920634914
aF0.3666666666666667
aF0.73670634920634914
aF58.912500000000001
aF32.732539682539681
aF199.27376443001438
aF0
aF0
aF0
asS'biomass'
p10
(lp11
F1356
aF239
aF649
aF36
aF30
aF66
aF14
aF3.2000000000000002
aF282
aF17
aF0.001
aF293
aF2086
aF30
aF700
aF2368
aF27232
aF0.001
aF610
aF2136
aF287
aF212
aF282
aF195
aF50
aF100
aF35
aF450
aF172
aF68
aF67
aF12504
aF201670
aF5249
aF0
aF0
aF0
asS'close_centr_undir'
p12
(lp13
F0.5901639344262295
aF0.5714285714285714
aF0.53731343283582089
aF0.52941176470588236
aF0.54545454545454553
aF0.59999999999999998
aF0.5901639344262295
aF0.58064516129032251
aF0.59999999999999998
aF0.55384615384615388
aF0.5
aF0.54545454545454553
aF0.52173913043478259
aF0.52941176470588236
aF0.5714285714285714
aF0.62068965517241381
aF0.63157894736842113
aF0.52173913043478259
aF0.5901639344262295
aF0.5714285714285714
aF0.63157894736842113
aF0.58064516129032251
aF0.5901639344262295
aF0.5714285714285714
aF0.55384615384615388
aF0.55384615384615388
aF0.55384615384615388
aF0.55384615384615388
aF0.61016949152542377
aF0.5714285714285714
aF0.59999999999999998
aF0.83720930232558144
aF0.61016949152542377
aF0.83720930232558144
aF0.5714285714285714
aF0.59999999999999998
aF0.94736842105263153
asS'between_centr_undir'
p14
(lp15
F4.7690476190476181
aF2.2523809523809524
aF0.035714285714285712
aF0.035714285714285712
aF0.23571428571428571
aF3.8182539682539676
aF2.1182539682539683
aF1.7515873015873016
aF4.2289682539682545
aF2.9898809523809522
aF0
aF0.95043290043290041
aF0.18333333333333335
aF0
aF3.8384920634920632
aF12.569444444444443
aF11.882936507936504
aF0.48942307692307696
aF4.4946178821178817
aF2.0608516483516479
aF10.38684371184371
aF2.7214285714285711
aF4.0969988344988346
aF2.2790043290043291
aF1.4956709956709957
aF0.30995670995670993
aF1.350570263070263
aF0.75847069597069594
aF5.500967088467088
aF2.6691849816849813
aF4.6303321678321669
aF79.717002442002453
aF15.170808358308358
aF75.993192918192904
aF9.056349206349207
aF10.659920634920637
aF183.49825036075035
asS'close_centr'
p16
(lp17
F0.49434156378600813
aF0.41326530612244894
aF0.33531746031746035
aF0.33531746031746035
aF0.33531746031746035
aF0.39952718676122928
aF0.3832199546485261
aF0.36819172113289761
aF0.3832199546485261
aF0.32375478927203061
aF0.027777777777777776
aF0.3607357357357357
aF0.29993757802746562
aF0.32467532467532467
aF0.34246575342465757
aF0.41666666666666669
aF0.39952718676122928
aF0.055555555555555552
aF0.32375478927203061
aF0.34141414141414139
aF0.40821256038647347
aF0.33531746031746035
aF0.32943469785575047
aF0.33531746031746035
aF0.312962962962963
aF0.32375478927203061
aF0.312962962962963
aF0.312962962962963
aF0.312962962962963
aF0.312962962962963
aF0.312962962962963
aF0.24074074074074078
aF0.42372881355932207
aF0.39120370370370366
aF0.52941176470588236
aF0
aF0
asS'out_degree'
p18
(lp19
I10
aI8
aI5
aI4
aI5
aI8
aI7
aI6
aI9
aI4
aI1
aI5
aI2
aI4
aI7
aI11
aI12
aI2
aI5
aI7
aI11
aI6
aI6
aI6
aI4
aI5
aI4
aI4
aI4
aI4
aI4
aI3
aI9
aI13
aI10
aI0
aI0
asS'impact_scores'
p20
(lp21
F0.15658518385753933
aF0.14663879115572043
aF0.15494282622926547
aF0.067919772169199463
aF0.10130588108713916
aF0.10241708147345997
aF0.086977667161284133
aF0.08627289802583292
aF0.14811563482103671
aF0.064116089378420227
aF0.063356786629223366
aF0.10220735473575625
aF0.086473149151423456
aF0.068479494265340599
aF0.099535397060665581
aF0.12587463949930267
aF0.15168960207444843
aF0.086007024323788969
aF0.087501148714712734
aF0.12929180725992048
aF0.13279955686231221
aF0.090899855138332181
aF0.086073259689057324
aF0.091542526752408232
aF0.085859447881463297
aF0.086162820162130907
aF0.085981858049503493
aF0.086518402133923047
aF0.085364004920268896
aF0.086010443424780994
aF0.085145925382044643
aF0.10124901562615082
aF0.13014961019673377
aF0.094433444433193306
aF0.058979997296762433
aF0.086007024323788969
aF0.086007024323788969
asS'in_degree'
p22
(lp23
I1
aI1
aI1
aI1
aI1
aI4
aI4
aI5
aI6
aI3
aI1
aI1
aI1
aI1
aI3
aI4
aI4
aI1
aI6
aI3
aI5
aI5
aI6
aI4
aI4
aI3
aI3
aI3
aI9
aI5
aI8
aI27
aI7
aI27
aI0
aI13
aI34
asS'page_rank'
p24
(lp25
F0.010015854106463344
aF0.010015854106463344
aF0.034493170187806059
aF0.015037275345684194
aF0.015094385520718774
aF0.01957514172655668
aF0.015791944996330076
aF0.020950319599479024
aF0.02313512850299837
aF0.016252669352245813
aF0.012684611026053817
aF0.010015854106463344
aF0.010015854106463344
aF0.011352358045118728
aF0.015466870226319894
aF0.017344926522816977
aF0.020147489440127113
aF0.010015854106463344
aF0.018651031314590581
aF0.018073319069495122
aF0.024187565368440744
aF0.024187565368440744
aF0.023736233089050665
aF0.019682608624741908
aF0.019682608624741908
aF0.017804552328244825
aF0.012783131089023975
aF0.014648179796810833
aF0.031835533598158938
aF0.023691001953564182
aF0.028664932456160419
aF0.089147027023188413
aF0.022456102297569037
aF0.08878482817426317
aF0.0092313296768386163
aF0.080991727915880746
aF0.14435516120622294
asS'throughflow'
p26
(lp27
F91050.559999999998
aF22670.639999999999
aF74635
aF6027.8400000000001
aF26026.799999999999
aF30360
aF1288
aF491.55599999999998
aF23609.044000000002
aF531.85199999999998
aF0.091999999999999998
aF21564.799999999999
aF1535.296
aF10405.200000000001
aF18032
aF15249.92
aF102719.102
aF9.9999999999999995e-08
aF685.40000000000009
aF19651.200000000001
aF7683.5639999999994
aF702.14400000000001
aF186.85199999999998
aF645.84000000000015
aF165.59999999999999
aF1380
aF37.536000000000001
aF163.11599999999999
aF395.60000000000002
aF444.17599999999999
aF419.06
aF74639.279999999999
aF46306.083999999995
aF83689.983999999997
aI0
aF5076.1920001000008
aF165862.01199999999
asS'multi_page_rank'
p28
(lp29
F0.013244899874556999
aF0.010146674404074772
aF0.084189832472400611
aF0.014671037506423255
aF0.034061994611564624
aF0.024739665094491093
aF0.0094614433006941692
aF0.0094330781861487519
aF0.019406118467357285
aF0.0097573228070418194
aF0.0093627490093653436
aF0.010096328240179444
aF0.0091885481773283234
aF0.016380523755761031
aF0.02015059826673328
aF0.020084604693482902
aF0.086859480786532051
aF0.0091196126606101057
aF0.0097242478484493109
aF0.012907249209133291
aF0.016199153751807895
aF0.0099790236722226248
aF0.0093919002762043007
aF0.0097470474259057794
aF0.0092758904346583078
aF0.010390948111125599
aF0.0091821801995513978
aF0.0092774663784547674
aF0.01149116944503464
aF0.013235881594380224
aF0.012130231725231734
aF0.088354054187349443
aF0.038056480055409604
aF0.090740011105843468
aF0.0091188381042424851
aF0.024154158537918982
aF0.19628955562233033
as.