(dp1
S'multi_page_rank_rev'
p2
(lp3
F0.10497370497718335
aF0.024069958101422054
aF0.043968460384818608
aF0.01125850832515863
aF0.029927009372837328
aF0.032216192487242383
aF0.0092605744179035283
aF0.010364516180969509
aF0.049842838308149298
aF0.015160140614782356
aF0.0085911888040718556
aF0.023999136450093893
aF0.0092122420684261283
aF0.025939603690964791
aF0.024085973497962709
aF0.035992986244199499
aF0.023637825754640452
aF0.008531558772116022
aF0.010196950007652346
aF0.018470282156936565
aF0.020814114676850747
aF0.008531558772116022
aF0.0085141631717657006
aF0.013848041189199859
aF0.011978316280367787
aF0.0085977975715833804
aF0.0085508151801925621
aF0.0085508151801925621
aF0.0085559553327015248
aF0.0085759460482793433
aF0.0086118637492049229
aF0.046563806588942512
aF0.057621942854777723
aF0.05073519004697033
aF0.19326167782694795
aF0.0084941724561878821
aF0.0084941724561878821
asS'degree'
p4
(lp5
I10
aI9
aI6
aI5
aI6
aI11
aI10
aI11
aI16
aI7
aI6
aI6
aI3
aI6
aI10
aI17
aI17
aI3
aI11
aI9
aI16
aI3
aI8
aI12
aI9
aI7
aI7
aI9
aI10
aI8
aI9
aI29
aI21
aI31
aI11
aI15
aI34
asS'node_ids'
p6
(lp7
I1
aI2
aI3
aI4
aI5
aI6
aI7
aI8
aI9
aI10
aI11
aI12
aI13
aI14
aI15
aI16
aI17
aI18
aI19
aI20
aI21
aI22
aI23
aI24
aI25
aI26
aI27
aI28
aI29
aI30
aI31
aI32
aI33
aI34
aI35
aI36
aI37
asS'between_centr'
p8
(lp9
F2.9274891774891771
aF2.356060606060606
aF54.290849673202615
aF0
aF6.75
aF12.674242424242424
aF1.7297979797979797
aF5.4297979797979803
aF16.881186868686861
aF0.25
aF0
aF0.54545454545454541
aF0.045454545454545456
aF0.71428571428571419
aF3.2058823529411762
aF17.215505899329429
aF53.286922799422811
aF0.14545454545454545
aF1.0482323232323232
aF11.424206349206349
aF32.698611111111127
aF0.14545454545454545
aF4.6029295051353873
aF11.538620448179271
aF9.8719537815126035
aF7.2410014005602239
aF2.4609254307783717
aF4.7140406162464981
aF10.853349673202613
aF2.1666666666666661
aF3.8533496732026138
aF60.193627450980394
aF93.96061560988035
aF213.27803030303031
aF0
aF0
aF0
asS'biomass'
p10
(lp11
F3326
aF587
aF2415
aF73
aF149
aF147
aF23
aF18
aF526
aF126
aF6.2999999999999998
aF265
aF1952
aF298
aF494
aF1030
aF421
aF0.001
aF390
aF2136
aF381
aF0.001
aF29
aF222
aF226
aF50
aF9
aF45
aF172
aF68
aF67
aF28207
aF201607
aF10324
aF0
aF0
aF0
asS'close_centr_undir'
p12
(lp13
F0.58064516129032251
aF0.5714285714285714
aF0.52941176470588236
aF0.52941176470588236
aF0.53731343283582089
aF0.5901639344262295
aF0.58064516129032251
aF0.58064516129032251
aF0.61016949152542377
aF0.54545454545454553
aF0.53731343283582089
aF0.54545454545454553
aF0.52173913043478259
aF0.53731343283582089
aF0.5714285714285714
aF0.64285714285714279
aF0.65454545454545454
aF0.52173913043478259
aF0.5625
aF0.5714285714285714
aF0.62068965517241381
aF0.52173913043478259
aF0.5625
aF0.59999999999999998
aF0.5714285714285714
aF0.55384615384615388
aF0.55384615384615388
aF0.5714285714285714
aF0.58064516129032251
aF0.55384615384615388
aF0.5714285714285714
aF0.81818181818181812
aF0.65454545454545454
aF0.80000000000000004
aF0.53731343283582089
aF0.63157894736842113
aF0.94736842105263153
asS'between_centr_undir'
p14
(lp15
F5.750317436187002
aF4.1800793409489065
aF0
aF0
aF0.20000000000000001
aF3.0505600679513725
aF1.5172267346180393
aF1.2505600679513722
aF6.0684172108085148
aF0.16666666666666666
aF0
aF1.1549001722914765
aF0.30147606017171241
aF0.22619047619047616
aF2.7563492063492063
aF16.786697963871877
aF19.332185568055134
aF0.61845328584459014
aF2.3032266043135605
aF3.2384920634920631
aF11.523015873015872
aF0.61845328584459014
aF1.5759067019936583
aF4.2388639138639137
aF2.3241813741813737
aF0.76068931068931067
aF1.7851971699797788
aF1.2286844797714362
aF2.8989225750095313
aF1.1134920634920638
aF1.7509929683842727
aF76.786392713566627
aF24.022076715554981
aF62.258787227265472
aF15.271367521367521
aF20.165441683919941
aF176.77573549638765
asS'close_centr'
p16
(lp17
F0.45454545454545459
aF0.43859649122807021
aF0.34354575163398693
aF0.3650173611111111
aF0.34354575163398693
aF0.38935185185185178
aF0.37679211469534052
aF0.35940170940170946
aF0.38296903460837889
aF0.3290297339593114
aF0.3200152207001522
aF0.31645569620253167
aF0.26595744680851063
aF0.30339105339105338
aF0.33856682769726248
aF0.38935185185185178
aF0.39595103578154428
aF0.055555555555555552
aF0.31148148148148147
aF0.33373015873015877
aF0.39595103578154428
aF0.055555555555555552
aF0.3200152207001522
aF0.3650173611111111
aF0.33373015873015877
aF0.3200152207001522
aF0.32445987654320985
aF0.32445987654320985
aF0.32445987654320985
aF0.32445987654320985
aF0.32445987654320985
aF0.25119474313022699
aF0.35940170940170946
aF0.44925213675213671
aF0.52173913043478259
aF0
aF0
asS'out_degree'
p18
(lp19
I9
aI8
aI5
aI4
aI5
aI7
aI6
aI5
aI10
aI4
aI3
aI5
aI2
aI5
aI7
aI12
aI12
aI2
aI5
aI6
aI11
aI2
aI3
aI8
aI5
aI3
aI4
aI4
aI4
aI4
aI4
aI3
aI11
aI10
aI11
aI0
aI0
asS'impact_scores'
p20
(lp21
F0.24069747464808761
aF0.057423024228176356
aF0.078158212588353274
aF0.035318169911120266
aF0.059518476282599646
aF0.051779677517534005
aF0.035545977163277793
aF0.03583085427556372
aF0.081511880862520036
aF0.076292299478384062
aF0.035808100929612507
aF0.054116605159174318
aF0.035847471599466676
aF0.027809391739176213
aF0.040771572297163099
aF0.053658170889953165
aF0.04149316816147515
aF0.035556006376660607
aF0.035490629835603776
aF0.049443263187140651
aF0.069199995201399772
aF0.035556006376660607
aF0.035548662175677252
aF0.037436896228441402
aF0.039856064370088568
aF0.035468448101445581
aF0.035550194827485691
aF0.035548483706992241
aF0.035697237479694166
aF0.035881420274316476
aF0.035976586597100839
aF0.069413288109380078
aF0.066662938849344336
aF0.066181125224208617
aF0.0085289793496336613
aF0.035556006376660607
aF0.035556006376660607
asS'in_degree'
p22
(lp23
I1
aI1
aI1
aI1
aI1
aI4
aI4
aI6
aI6
aI3
aI3
aI1
aI1
aI1
aI3
aI5
aI5
aI1
aI6
aI3
aI5
aI1
aI5
aI4
aI4
aI4
aI3
aI5
aI6
aI4
aI5
aI26
aI10
aI21
aI0
aI15
aI34
asS'page_rank'
p24
(lp25
F0.010083989741336693
aF0.010083989741336693
aF0.035898083910213124
aF0.016174814858907583
aF0.015462875410826532
aF0.02011511998079232
aF0.01645557036252936
aF0.025106463050271699
aF0.025106463050271699
aF0.017875793813463936
aF0.017406425541896042
aF0.010083989741336693
aF0.010083989741336693
aF0.012154653656359806
aF0.015935052686648524
aF0.018593294989060299
aF0.022358730416132629
aF0.010083989741336693
aF0.021341727336004264
aF0.019261076256865375
aF0.027350600906006238
aF0.010083989741336693
aF0.019302614720644068
aF0.016990333439411635
aF0.016990333439411635
aF0.016990333439411635
aF0.012984712632618831
aF0.018973890093118419
aF0.022536556232029922
aF0.018896046498569963
aF0.018908447746079381
aF0.093656870351777749
aF0.036156305391300769
aF0.080161637901993932
aF0.0093607043306946133
aF0.086854224963858279
aF0.14413630414480946
asS'throughflow'
p26
(lp27
F241715.29999999999
aF60507.480000000003
aF262172.40000000002
aF15178.16
aF109664
aF67484.75
aF2116
aF2765.52
aF58554.321999999993
aF3825.4520000000002
aF359.25999999999999
aF19504
aF1616.2560000000001
aF103358.3
aF12725.440000000001
aF7044.4400000000005
aF2879.4160000000002
aF9.9999999999999995e-08
aF545.55999999999995
aF19651.200000000001
aF10200.132000000001
aF9.9999999999999995e-08
aF19.228000000000002
aF735.17200000000003
aF748.60400000000004
aF690
aF9.7519999999999989
aF16.284000000000002
aF395.60000000000002
aF444.17599999999999
aF419.06
aF262875.83400000003
aF111178.03799999999
aF120242.62199999996
aI0
aF7008.4781002
aF372363.098
asS'multi_page_rank'
p28
(lp29
F0.014082564558227754
aF0.01037559000990486
aF0.11058244364714021
aF0.015779264088307696
aF0.048444719855244157
aF0.022345560121035994
aF0.0094000330383276053
aF0.009689753789255684
aF0.018595326938824042
aF0.010587258286577656
aF0.0099852406078975477
aF0.0095375049121052529
aF0.0091712306841780344
aF0.051425468827439237
aF0.014422278521518209
aF0.012955584314221266
aF0.0097852884433030293
aF0.0091386384859302745
aF0.011096923558542035
aF0.010710682428462067
aF0.014026183512593248
aF0.0091386384859302745
aF0.0093668106458488359
aF0.010340341237603249
aF0.010340341237603249
aF0.010282990216259466
aF0.0092986629419230405
aF0.0097081414293800194
aF0.010847546048868277
aF0.012323856152087219
aF0.010620902530811474
aF0.11968984961537033
aF0.05361757756258765
aF0.061879214503979887
aF0.0091378624812100892
aF0.031291714877819843
aF0.18997801140368117
as.