(dp1
S'impact_scores'
p2
(lp3
F0.11322933977273149
aF0.046738856443274322
aF0.15890942639849931
aF0.070831513638788909
aF0.094820709703211506
aF0.073623114226235686
aF0.050881098104811416
aF0.1077714035389022
aF0.043770271154403774
aF0.089419248113730462
aF0.050739016147256309
aF0.050823294991387408
aF0.050546962590743011
aF0.053750100114381388
aF0.051470142409934208
aF0.059024592510470715
aF0.051185960297289945
aF0.051530428114938576
aF0.051212231038634107
aF0.051134653845213034
aF0.050604372090610597
aF0.06104073409388111
aF0.051583925901182187
aF0.050835889243277851
aF0.051193907083996355
aF0.051193714183831861
aF0.052569167199404347
aF0.051142325914020313
aF0.051191614177929702
aF0.051186712227960132
aF0.050941659291401785
aF0.051169486749427492
aF0.051069276941474367
aF0.035296896937057523
aF0.077000646418495133
aF0.18580475385883338
aF0.025553011773505257
aF0.051194037414530894
aF0.051194037414530894
asS'degree'
p4
(lp5
I11
aI12
aI8
aI4
aI4
aI4
aI11
aI14
aI8
aI5
aI7
aI9
aI7
aI8
aI9
aI5
aI4
aI9
aI12
aI4
aI5
aI13
aI10
aI4
aI6
aI7
aI9
aI6
aI6
aI6
aI5
aI7
aI7
aI3
aI19
aI31
aI4
aI18
aI33
asS'node_ids'
p6
(lp7
I1
aI2
aI3
aI4
aI5
aI6
aI7
aI8
aI9
aI10
aI11
aI12
aI13
aI14
aI15
aI16
aI17
aI18
aI19
aI20
aI21
aI22
aI23
aI24
aI25
aI26
aI27
aI28
aI29
aI30
aI31
aI32
aI33
aI34
aI35
aI36
aI37
aI38
aI39
asS'throughflow'
p8
(lp9
F522650
aF32570.299999999999
aF623594.40000000002
aF77803
aF182022.20000000001
aF91011.119999999995
aF89499.546000000002
aF92523.532999999996
aF14266.615900000001
aF1780.0212000000001
aF7582.7968000000001
aF4105.6430200000004
aF7971.3799999999992
aF134896.29999999999
aF21021.099999999999
aF48089.089999999997
aF48248.740000000005
aF11805.24
aF7333.2282999999989
aF5.1048280000000004
aF26.7743
aF2221.6608799999999
aF394.58002599999998
aF5.4173679999999997
aF8.0058289000000009
aF81.979067000000001
aF405.39418599999999
aF127.79592
aF182.21608000000001
aF14.083465
aF95.243740000000003
aF26.355577500000003
aF31.184154199999998
aF182022.63
aF398018.40089999995
aF625011.95039799984
aI0
aF23958.854125099999
aF864833.32065329992
asS'in_degree'
p10
(lp11
I1
aI1
aI1
aI1
aI1
aI1
aI4
aI4
aI4
aI2
aI4
aI4
aI4
aI1
aI1
aI1
aI2
aI1
aI7
aI1
aI1
aI4
aI4
aI1
aI3
aI4
aI5
aI3
aI3
aI3
aI1
aI4
aI4
aI2
aI9
aI29
aI0
aI18
aI33
asS'biomass'
p12
(lp13
F3480
aF79
aF600
aF177.25
aF390.5
aF39
aF148.75
aF197.5
aF19.25
aF1.7500070000000001
aF363.75
aF110
aF1100
aF1186.5
aF113.25
aF1890.25
aF337.5
aF228
aF275
aF0.1000075
aF1.1499999999999999
aF72.75
aF31.524999999999999
aF0.45000499999999999
aF0.95000249999999997
aF9
aF35
aF25.475000000000001
aF22.375
aF2.2500019999999998
aF6.3000020000000001
aF4.4250020000000001
aF4.4000019999999997
aF21857.5
aF7631
aF305000
aF0
aF0
aF0
asS'page_rank'
p14
(lp15
F0.010388369827456201
aF0.011244796157847877
aF0.060995893035330727
aF0.010388369827456201
aF0.018148586107149346
aF0.013709726129695413
aF0.016881449279879543
aF0.015046760331060668
aF0.015442740807462278
aF0.013128324430114422
aF0.015046760331060668
aF0.015046760331060668
aF0.015046760331060668
aF0.015975202890690082
aF0.015975202890690082
aF0.015975202890690082
aF0.018918693753359805
aF0.015975202890690082
aF0.089888387659807195
aF0.0098466185082868481
aF0.0098466185082868481
aF0.014275861589116208
aF0.014275861589116208
aF0.0098466185082868481
aF0.01390175082309026
aF0.016459806293495319
aF0.018644548425435659
aF0.013552850195884533
aF0.01390175082309026
aF0.015900832638698664
aF0.0099159228890622984
aF0.015742926360657567
aF0.029313049785064514
aF0.011271417086257118
aF0.031497615648886472
aF0.12336841683891892
aF0.0085675907730843187
aF0.082716789104836458
aF0.13392996370788274
asS'between_centr'
p16
(lp17
F5.0833333333333339
aF0.055555555555555552
aF167.25
aF2.833333333333333
aF18
aF0.5
aF3.1097222222222221
aF20.578174603174606
aF3.2347222222222221
aF0.61250000000000004
aF3.3603174603174599
aF9.9186507936507944
aF2.7638888888888893
aF24.874999999999993
aF25.149999999999991
aF5.0499999999999998
aF0
aF30.149999999999991
aF13.909523809523808
aF0.61250000000000004
aF0.85059523809523807
aF26.640079365079369
aF10.140079365079364
aF0.61250000000000004
aF0.34166666666666662
aF0.34166666666666662
aF11.616666666666667
aF0.23333333333333334
aF0.34166666666666662
aF0
aF0
aF0.10833333333333334
aF0
aF2
aF78.117857142857147
aF198.60833333333329
aF0
aF0
aF0
asS'close_centr_undir'
p18
(lp19
F0.58461538461538465
aF0.57575757575757569
aF0.52777777777777779
aF0.52054794520547942
aF0.52054794520547942
aF0.52054794520547942
aF0.57575757575757569
aF0.60317460317460314
aF0.54285714285714282
aF0.52777777777777779
aF0.55072463768115942
aF0.56716417910447758
aF0.55072463768115942
aF0.54285714285714282
aF0.55072463768115942
aF0.52054794520547942
aF0.51351351351351349
aF0.55072463768115942
aF0.55072463768115942
aF0.51351351351351349
aF0.52054794520547942
aF0.60317460317460314
aF0.57575757575757569
aF0.51351351351351349
aF0.52777777777777779
aF0.53521126760563376
aF0.55072463768115942
aF0.52777777777777779
aF0.52777777777777779
aF0.52777777777777779
aF0.52054794520547942
aF0.53521126760563376
aF0.53521126760563376
aF0.39175257731958762
aF0.62295081967213106
aF0.79166666666666674
aF0.41758241758241754
aF0.58461538461538465
aF0.88372093023255816
asS'between_centr_undir'
p20
(lp21
F35.484065934065931
aF3.9427960927960921
aF2.4119047619047618
aF9.4134920634920611
aF9.9737484737484721
aF0.41025641025641024
aF4.698656898656898
aF18.331116065898673
aF0.84041514041514043
aF0.22374847374847373
aF2.5015262515262515
aF6.9695692249400683
aF2.5529025582734022
aF2.9116402116402118
aF4.113492063492064
aF0.60608465608465611
aF0.56904761904761914
aF4.3801587301587306
aF6.3567686197481601
aF0.49446703244657209
aF0.69446703244657193
aF17.042218797589637
aF7.6755521309229735
aF0.49446703244657209
aF1.3651019530814927
aF2.1984352864148256
aF4.9502871382666775
aF1.4120596250391646
aF1.3651019530814927
aF0.7333559213354609
aF0.38335592133546098
aF1.8352077731873127
aF1.6333559213354609
aF0.83333333333333326
aF34.096206933163458
aF144.04814814814813
aF3.2817460317460316
aF38.142857142857139
aF239.62888464192812
asS'multi_page_rank_rev'
p22
(lp23
F0.091556657057631469
aF0.013164074481637304
aF0.097375930498192015
aF0.014651494838716144
aF0.024037544934291152
aF0.017472417044708886
aF0.023688342055029784
aF0.062401598384327191
aF0.010669810381168337
aF0.007274100651520345
aF0.0082495866288274256
aF0.0092378055368770445
aF0.008110315984537101
aF0.033421278730928913
aF0.018095758473754695
aF0.014884957419453445
aF0.010607666334313565
aF0.016232018108127879
aF0.009458032881741683
aF0.0071522253503702397
aF0.0086721139602775801
aF0.022903473477357661
aF0.012230781466157956
aF0.0071522253503702397
aF0.0071522253503702397
aF0.0071522253503702397
aF0.0092014030011565353
aF0.0071522253503702397
aF0.007163244770055718
aF0.0071522253503702397
aF0.0086721139602775801
aF0.0071522253503702397
aF0.0071522253503702397
aF0.027552115539349557
aF0.099999868258226987
aF0.091374593132645232
aF0.15018469533493009
aF0.0071192019354092894
aF0.0071192019354092894
asS'multi_page_rank'
p24
(lp25
F0.013644438643305619
aF0.011407322453628195
aF0.14518761031020633
aF0.0097745641751666463
aF0.019079499687920505
aF0.017201966906028369
aF0.017062249969669117
aF0.014715342784912069
aF0.010951559740943502
aF0.0096669314798600078
aF0.0094959609761195492
aF0.0093141161199504392
aF0.0095187859899915177
aF0.0357852489360116
aF0.013263944524642517
aF0.018626159860682848
aF0.017007596383899325
aF0.011435517000222186
aF0.013084672297011751
aF0.0091091984376776257
aF0.0091091984376776257
aF0.0093715596291038573
aF0.0091736741985432458
aF0.0091091984376776257
aF0.009233952203630694
aF0.0093989086575870292
aF0.0095520606183001934
aF0.0094129782401510594
aF0.009253948583286804
aF0.011372719513463605
aF0.0095951586083912552
aF0.012321813075782815
aF0.012279488542110039
aF0.011742982764423409
aF0.033206926952090675
aF0.16047683929363554
aF0.0090972394930308106
aF0.049543320206591905
aF0.19141534586667219
asS'close_centr'
p26
(lp27
F0.42631578947368415
aF0.43463497453310695
aF0.25350877192982457
aF0.15789473684210525
aF0.32022160664819949
aF0.30814940577249572
aF0.33684210526315789
aF0.36914203316510452
aF0.33684210526315789
aF0.33268356075373617
aF0.16087388282025819
aF0.17400644468313642
aF0.15789473684210525
aF0.22368421052631579
aF0.23766447368421054
aF0.17284688995215308
aF0.14349553128103276
aF0.23766447368421054
aF0.15210526315789472
aF0.15789473684210525
aF0.16396761133603238
aF0.23750000000000002
aF0.18947368421052632
aF0.15789473684210525
aF0.15210526315789472
aF0.15210526315789472
aF0.16533180778032036
aF0.15210526315789472
aF0.15210526315789472
aF0.15520945220193341
aF0.16718266253869968
aF0.15210526315789472
aF0.14912280701754385
aF0.24797570850202433
aF0.42773600668337508
aF0.1901315789473684
aF0.37623762376237624
aF0
aF0
asS'out_degree'
p28
(lp29
I10
aI11
aI7
aI3
aI3
aI3
aI7
aI10
aI4
aI3
aI3
aI5
aI3
aI7
aI8
aI4
aI2
aI8
aI5
aI3
aI4
aI9
aI6
aI3
aI3
aI3
aI4
aI3
aI3
aI3
aI4
aI3
aI3
aI1
aI10
aI2
aI4
aI0
aI0
as.