(dp1
S'multi_page_rank_rev'
p2
(lp3
F0.045183386092039715
aF0.14930285045831637
aF0.045217086711369911
aF0.1049235623256773
aF0.013282774405559913
aF0.01327433515030672
aF0.01327433515030672
aF0.021913527108977465
aF0.014945590849338521
aF0.018083155033578321
aF0.018105633389322879
aF0.015572721134573492
aF0.015778016013890259
aF0.025257474939606256
aF0.02029694558357284
aF0.01327433515030672
aF0.01327433515030672
aF0.017684041389436703
aF0.029841287935514042
aF0.01327433515030672
aF0.19945569167649024
aF0.15229518770881445
aF0.013244695746193835
aF0.013244695746193835
asS'degree'
p4
(lp5
I5
aI3
aI10
aI16
aI4
aI8
aI6
aI11
aI12
aI9
aI10
aI13
aI6
aI11
aI10
aI6
aI5
aI13
aI9
aI7
aI32
aI5
aI19
aI20
asS'node_ids'
p6
(lp7
I1
aI2
aI3
aI4
aI5
aI6
aI7
aI8
aI9
aI10
aI11
aI12
aI13
aI14
aI15
aI16
aI17
aI18
aI19
aI20
aI21
aI22
aI23
aI24
asS'between_centr'
p8
(lp9
F0
aF1.4000000000000001
aF0
aF21.864285714285717
aF0
aF0
aF0
aF6.53095238095238
aF2.7750000000000004
aF3.5976190476190473
aF4.0976190476190473
aF3.6499999999999999
aF0
aF6.2559523809523814
aF4.7559523809523805
aF0
aF0.20000000000000001
aF4.8499999999999996
aF13.772619047619044
aF0
aF140.75
aF0
aF0
aF0
asS'biomass'
p10
(lp11
F332
aF446000
aF261
aF14148
aF107
aF40
aF4
aF15
aF46
aF16
aF27
aF156
aF121
aF246
aF82
aF2
aF13
aF54
aF864
aF2
aF695000
aF0
aF0
aF0
asS'close_centr_undir'
p12
(lp13
F0.54761904761904767
aF0.53488372093023251
aF0.6216216216216216
aF0.74193548387096775
aF0.53488372093023251
aF0.60526315789473684
aF0.54761904761904767
aF0.63888888888888884
aF0.65714285714285714
aF0.60526315789473684
aF0.6216216216216216
aF0.69696969696969702
aF0.57500000000000007
aF0.63888888888888884
aF0.6216216216216216
aF0.54761904761904767
aF0.54761904761904767
aF0.67647058823529416
aF0.60526315789473684
aF0.58974358974358976
aF0.95833333333333337
aF0.5
aF0.85185185185185175
aF0.88461538461538469
asS'between_centr_undir'
p14
(lp15
F1.1083333333333334
aF0.93754651780967568
aF2.7019423558897242
aF10.691144527986635
aF0.052631578947368418
aF0.94548872180451116
aF0.16374269005847952
aF4.8621183640920487
aF5.9443912812333872
aF2.127306903622693
aF3.2241323004480895
aF10.314304701146808
aF0.15263157894736842
aF2.3946950710108599
aF1.4351712614870511
aF0.16374269005847952
aF0.7026315789473685
aF6.7537527530948589
aF3.3094497607655495
aF0.38596491228070173
aF46.877738854712547
aF1.5333333333333332
aF25.830576441102757
aF34.387228487886375
asS'close_centr'
p16
(lp17
F0.49163879598662202
aF0.39945652173913043
aF0.51150895140664965
aF0.66889632107023411
aF0.39525691699604748
aF0.39525691699604748
aF0.38647342995169082
aF0.48309178743961356
aF0.42417815482502658
aF0.4700352526439483
aF0.4700352526439483
aF0.41407867494824013
aF0.45766590389016026
aF0.49689440993788825
aF0.48309178743961356
aF0.38647342995169082
aF0.39525691699604748
aF0.43478260869565222
aF0.48309178743961356
aF0.39525691699604748
aF0.62111801242236031
aF0.38969404186795492
aF0
aF0
asS'out_degree'
p18
(lp19
I5
aI2
aI9
aI15
aI3
aI3
aI3
aI7
aI4
aI6
aI6
aI4
aI5
aI8
aI7
aI3
aI3
aI5
aI7
aI3
aI12
aI5
aI0
aI0
asS'impact_scores'
p20
(lp21
F0.021702122231146523
aF0.060058802897648041
aF0.047889859385507848
aF0.07978450473003755
aF0.058479262093135649
aF0.058333144754062601
aF0.058274729702274729
aF0.058672533538461302
aF0.0576921648097036
aF0.057452137042371766
aF0.058034877714808843
aF0.057115429944254163
aF0.058539851871892319
aF0.057371610469981682
aF0.057485655640168019
aF0.058233211646653994
aF0.058310293217395531
aF0.057935010997320478
aF0.059337055429262174
aF0.058435024561799054
aF0.11719503629748039
aF0.058565830726693031
aF0.058565830726693031
aF0.058565830726693031
asS'in_degree'
p22
(lp23
I0
aI1
aI1
aI1
aI1
aI5
aI3
aI4
aI8
aI3
aI4
aI9
aI1
aI3
aI3
aI3
aI2
aI8
aI2
aI4
aI20
aI0
aI19
aI20
asS'page_rank'
p24
(lp25
F0.015702128308570238
aF0.018371772779163794
aF0.024963616223236326
aF0.024963616223236326
aF0.019057943967871884
aF0.040231966985780299
aF0.02873644428897483
aF0.031406088759568386
aF0.044600280839665433
aF0.029048071218481818
aF0.031406088759568386
aF0.044974622618627724
aF0.017116938833222177
aF0.02873644428897483
aF0.02873644428897483
aF0.02873644428897483
aF0.019786583303815733
aF0.048185817927012431
aF0.027633260693829882
aF0.03424990395575056
aF0.1307593644330447
aF0.015702128308570238
aF0.12954282082796711
aF0.13735120787711724
asS'throughflow'
p26
(lp27
I0
aF6704
aF109.8
aF2117.9000000000001
aF2.5099999999999998
aF0.70000000000000007
aF0.15000000000000002
aF3.5800000000000001
aF1.55
aF1.3799999999999999
aF1.8599999999999999
aF6.5899999999999999
aF5.2800000000000002
aF15.42
aF6.4000000000000004
aF0.13
aF0.32000000000000001
aF2.04
aF32.549999999999997
aF0.11000000000000001
aF5353.8000000000002
aI0
aF1045.8900000000001
aF5898.7000000000007
asS'multi_page_rank'
p28
(lp29
F0.018279747560755188
aF0.033807448696582504
aF0.020933280932659722
aF0.069392625132993588
aF0.019511682556190388
aF0.025885262332444585
aF0.01839026444475237
aF0.018413550170365695
aF0.027882092649557072
aF0.018355834400498837
aF0.018431544719535883
aF0.029790043546180374
aF0.01842875942814827
aF0.019235644879674364
aF0.018765165252708965
aF0.01839026444475237
aF0.018323474237426831
aF0.032420647184177316
aF0.019204713089804926
aF0.026129952611417446
aF0.1520952413635959
aF0.018279747560755188
aF0.11666302022226364
aF0.22298999258275864
as.