(dp1
S'multi_page_rank_rev'
p2
(lp3
F0.049734351068068013
aF0.14771995662503742
aF0.041577678157632747
aF0.14305166608358838
aF0.013076689269974885
aF0.029228290893970284
aF0.013083765488436041
aF0.013083765488436041
aF0.014173182078582905
aF0.014180258297044061
aF0.014189767474730542
aF0.01421319246644925
aF0.013083765488436041
aF0.014180258297044061
aF0.013083765488436041
aF0.013083765488436041
aF0.013083765488436041
aF0.013084981968048703
aF0.013083765488436041
aF0.02577890890611333
aF0.20578120382866005
aF0.14233672760949051
aF0.013053264278256177
aF0.013053264278256177
asS'degree'
p4
(lp5
I5
aI4
aI8
aI17
aI4
aI10
aI4
aI5
aI6
aI8
aI12
aI5
aI4
aI7
aI6
aI6
aI4
aI4
aI4
aI8
aI29
aI2
aI18
aI20
asS'node_ids'
p6
(lp7
I1
aI2
aI3
aI4
aI5
aI6
aI7
aI8
aI9
aI10
aI11
aI12
aI13
aI14
aI15
aI16
aI17
aI18
aI19
aI20
aI21
aI22
aI23
aI24
asS'between_centr'
p8
(lp9
F0
aF4.75
aF0
aF64.950000000000017
aF0
aF23.616666666666674
aF0
aF0
aF1.466666666666667
aF1.758333333333334
aF0.25
aF0
aF0.22500000000000001
aF1.3666666666666669
aF0
aF4.75
aF0
aF0
aF0
aF1.8916666666666668
aF150.47499999999999
aF0
aF0
aF0
asS'biomass'
p10
(lp11
F335
aF280000
aF261
aF11258
aF4
aF378
aF9.5999999999999996
aF12
aF6.7999999999999998
aF8.5999999999999996
aF60
aF83
aF4.7000000000000002
aF14
aF14
aF11
aF1
aF68
aF15.6
aF868
aF462000
aF0
aF0
aF0
asS'close_centr_undir'
p12
(lp13
F0.54761904761904767
aF0.54761904761904767
aF0.57500000000000007
aF0.76666666666666661
aF0.53488372093023251
aF0.6216216216216216
aF0.53488372093023251
aF0.54761904761904767
aF0.54761904761904767
aF0.57500000000000007
aF0.6216216216216216
aF0.54761904761904767
aF0.53488372093023251
aF0.56097560975609762
aF0.54761904761904767
aF0.57500000000000007
aF0.53488372093023251
aF0.53488372093023251
aF0.53488372093023251
aF0.58974358974358976
aF0.95833333333333337
aF0.3833333333333333
aF0.8214285714285714
aF0.88461538461538469
asS'between_centr_undir'
p14
(lp15
F1.4000000000000001
aF8.4448412698412714
aF1.1555555555555554
aF19.259126984126983
aF0.14285714285714285
aF4.0757936507936501
aF0.055555555555555552
aF0.19841269841269843
aF0.69999999999999996
aF1.8150793650793648
aF3.3484126984126981
aF0.055555555555555552
aF0.50555555555555554
aF0.36507936507936511
aF0.19841269841269843
aF12.666269841269841
aF0.055555555555555552
aF0.055555555555555552
aF0.055555555555555552
aF3.4888888888888885
aF60.917460317460318
aF0.25
aF34.045238095238098
aF46.745238095238101
asS'close_centr'
p16
(lp17
F0.44590495449949447
aF0.37002775208140615
aF0.42420681551116335
aF0.7134387351778656
aF0.34879227053140099
aF0.42420681551116335
aF0.3567193675889328
aF0.3567193675889328
aF0.3567193675889328
aF0.36501516683518709
aF0.3567193675889328
aF0.3737060041407867
aF0.37002775208140615
aF0.36501516683518709
aF0.34879227053140099
aF0.3567193675889328
aF0.3567193675889328
aF0.3567193675889328
aF0.3567193675889328
aF0.41304347826086957
aF0.54122938530734632
aF0.29498327759197318
aF0
aF0
asS'out_degree'
p18
(lp19
I5
aI3
aI7
aI16
aI2
aI7
aI3
aI3
aI3
aI4
aI4
aI4
aI3
aI4
aI3
aI3
aI3
aI3
aI3
aI6
aI9
aI2
aI0
aI0
asS'impact_scores'
p20
(lp21
F0.030098563602539347
aF0.067582165066106564
aF0.052556224228936743
aF0.093667309145632136
aF0.06542044475559157
aF0.060886168636670311
aF0.065430290009677233
aF0.06537559562419748
aF0.0647134435686227
aF0.064781383930576142
aF0.06474189630661234
aF0.065431575337295794
aF0.058304697954662921
aF0.064971360395689473
aF0.064652531887226361
aF0.065380335052749469
aF0.065430625453105531
aF0.065424409788840274
aF0.065429586045085822
aF0.065325001554788167
aF0.12170265011436221
aF0.065430927054557608
aF0.065430927054557608
aF0.065430927054557608
asS'in_degree'
p22
(lp23
I0
aI1
aI1
aI1
aI2
aI3
aI1
aI2
aI3
aI4
aI8
aI1
aI1
aI3
aI3
aI3
aI1
aI1
aI1
aI2
aI20
aI0
aI18
aI20
asS'page_rank'
p24
(lp25
F0.016432422140993264
aF0.023416021222912364
aF0.029931112965105349
aF0.029931112965105349
aF0.023649770365148263
aF0.035156169968533518
aF0.018022656881167054
aF0.023649770365148263
aF0.034314787338046784
aF0.037949609601301157
aF0.068985341420116988
aF0.018022656881167054
aF0.019225861773760906
aF0.035156169968533518
aF0.035156169968533518
aF0.029275007638597271
aF0.018022656881167054
aF0.018022656881167054
aF0.018022656881167054
aF0.020816096513934696
aF0.14292409660934699
aF0.016432422140993264
aF0.13385542482736185
aF0.15362934780069146
asS'throughflow'
p26
(lp27
I0
aF5488
aF117.15000000000001
aF1485.0999999999999
aF0.050000000000000003
aF23.440000000000001
aF0.17000000000000001
aF0.29999999999999999
aF0.37999999999999995
aF0.58000000000000007
aF2.6699999999999995
aF3.48
aF0.34999999999999998
aF0.88
aF0.79000000000000004
aF0.34000000000000002
aF0.070000000000000007
aF1.78
aF0.35999999999999999
aF22.920000000000002
aF4314.6100000000006
aI0
aF853.01999999999998
aF4999.3500000000004
asS'multi_page_rank'
p28
(lp29
F0.018492420948883728
aF0.034210043262358339
aF0.022432097911801844
aF0.068327493559252134
aF0.019222959383951854
aF0.020503754895454009
aF0.01851381286886537
aF0.019222959383951854
aF0.018558597061003771
aF0.018624581888409
aF0.038969682360245922
aF0.018642164388755229
aF0.018518795435587928
aF0.018598207401704796
aF0.018598207401704796
aF0.018886202104293159
aF0.01851381286886537
aF0.018577988628810299
aF0.01851381286886537
aF0.019467081742042529
aF0.17044668012194567
aF0.018492420948883728
aF0.10906745782312065
aF0.23659876474124275
as.