(dp1
S'impact_scores'
p2
(lp3
F0.45000915815991377
aF0.50308645024561371
aF0.27587458487892835
aF0.087895679882947095
aF0.37461904764435366
aF0.31838695020845659
aF0.37061895380813265
aF0.019420215551194487
aF6.7242456654416806e-10
aF0.19820666026405595
aF0.17644657855169973
aF0.38738302063402191
aF0.32877731746522876
aF6.7242456654416806e-10
aF0.1200750659918278
aF0.26078682918265844
aF0.38563241003836851
aF0.11470569034899736
aF0.095929425402772842
aF0.043826234480549127
aF0.070939096672770929
aF0.0096103020380599868
aF4.0335508915773407e-06
aF4.7227979562700808e-07
aF3.2038032452700836e-07
aF3.0848867309135429e-08
aF5.6518318074504281e-06
aF0.00087875539878063216
aF2.7692590002699031e-06
aF3.8196056307237576e-06
aF4.4064798163405327e-05
aF0.00013715133401151104
aF0.016023045480471378
aF0.02477584289603868
aF0.00021967882108023454
aF0.031468504376861363
aF6.7242456654416795e-10
aF6.7242456654416806e-10
aF6.7242456654416806e-10
asS'degree'
p4
(lp5
I10
aI10
aI10
aI7
aI14
aI12
aI14
aI8
aI2
aI16
aI16
aI9
aI8
aI2
aI5
aI27
aI19
aI20
aI20
aI8
aI9
aI7
aI10
aI6
aI6
aI6
aI6
aI10
aI12
aI7
aI6
aI7
aI7
aI10
aI4
aI43
aI5
aI15
aI29
asS'node_ids'
p6
(lp7
I1
aI2
aI3
aI4
aI5
aI6
aI7
aI8
aI9
aI10
aI11
aI12
aI13
aI14
aI15
aI16
aI17
aI18
aI19
aI20
aI21
aI22
aI23
aI24
aI25
aI26
aI27
aI28
aI29
aI30
aI31
aI32
aI33
aI34
aI35
aI36
aI37
aI38
aI39
asS'throughflow'
p8
(lp9
F2723.4580000000001
aF211.52430000000001
aF8306.1550000000007
aF183.35630699999999
aF756.73849500000006
aF1831.7718599999998
aF735.34001999999987
aF3.6572060000000004
aF1e-08
aF625.66420000000005
aF97.257768999999996
aF956.00134000000003
aF48.456801999999996
aF1e-08
aF160.74029999999999
aF27.545790200000003
aF40.552450470000004
aF60.469812480000002
aF3.6409113
aF1.0060891000000001
aF20.274166999999998
aF2.7784350999999998
aF0.069022462000000007
aF0.0072750636999999998
aF0.061972617000000001
aF0.0011900547999999999
aF0.25487471
aF0.26778787999999998
aF0.020885359699999998
aF0.17990136700000001
aF0.23236604999999999
aF0.57283839000000003
aF1.58147913
aF0.22118422999999998
aF0.0023056214
aF8944.1663389405003
aI0
aF7584.5406529319998
aF3656.6004319574995
asS'in_degree'
p10
(lp11
I1
aI1
aI1
aI4
aI5
aI3
aI4
aI3
aI1
aI5
aI8
aI2
aI4
aI1
aI1
aI11
aI6
aI6
aI6
aI2
aI3
aI4
aI7
aI4
aI4
aI4
aI4
aI7
aI8
aI4
aI3
aI4
aI4
aI6
aI3
aI33
aI0
aI15
aI29
asS'biomass'
p12
(lp13
F10.28552
aF2.1811989999999999
aF24.414439999999999
aF0.45813320000000002
aF7.5576150000000002
aF18.26558
aF7.3273979999999996
aF0.13504450000000001
aF1.0000000000000001e-09
aF31.319659999999999
aF3.9314749999999998
aF19.132529999999999
aF2.002653
aF0
aF1.605882
aF1.365966
aF1.717724
aF4.3990349999999996
aF0.46920200000000001
aF0.07814285
aF1.975703
aF0.18096319999999999
aF0.02465088
aF0.0041571790000000004
aF0.049781289999999999
aF0.00059502749999999999
aF0.098951369999999997
aF0.1025359
aF0.0072735090000000001
aF0.035980270000000002
aF0.056844909999999998
aF0.040917040000000002
aF0.1146722
aF0.056046680000000001
aF0.00046112429999999998
aF69.677279999999996
aF0
aF0
aF0
asS'page_rank'
p14
(lp15
F0.0096085440418165486
aF0.0096085440418165486
aF0.0096085440418165486
aF0.022697337278347461
aF0.029129250012358939
aF0.010934863944892617
aF0.022697337278347461
aF0.01392579615686923
aF0.0096085440418165486
aF0.026942819852217158
aF0.032656313591680017
aF0.02273591298391673
aF0.022697337278347461
aF0.0096085440418165486
aF0.01997477575086121
aF0.040214220739061411
aF0.021844805829056284
aF0.021844805829056284
aF0.021613808052313201
aF0.013764026577156193
aF0.016525163810211716
aF0.019808978223166747
aF0.023272536840048933
aF0.014415238829514725
aF0.014415238829514725
aF0.014415238829514725
aF0.014415238829514725
aF0.026101955228624768
aF0.024257828242488955
aF0.014415238829514725
aF0.013089017946260106
aF0.014415238829514725
aF0.014415238829514725
aF0.018706104082739122
aF0.018668763568298621
aF0.13839435247934037
aF0.0082123024174063641
aF0.080537329606991864
aF0.119802864384255
asS'between_centr'
p16
(lp17
F5.3333333333333321
aF5.3333333333333321
aF5.3333333333333321
aF0.3611111111111111
aF27.61249999999999
aF2.6722222222222221
aF23.324999999999992
aF0
aF0.25
aF37.401388888888874
aF33.009722222222223
aF9.0277777777777786
aF4.1527777777777777
aF0.25
aF0.1111111111111111
aF129.80555555555551
aF12.295833333333334
aF18.611111111111114
aF9.847222222222225
aF0.67916666666666659
aF1.8041666666666667
aF0.53749999999999998
aF0.75972222222222219
aF0
aF0
aF0
aF0
aF0
aF5.6894841269841274
aF0.12698412698412698
aF0.12698412698412698
aF0.12698412698412698
aF0.12698412698412698
aF2.8492063492063489
aF0
aF308.9394841269841
aF0
aF0
aF0
asS'close_centr_undir'
p18
(lp19
F0.57575757575757569
aF0.57575757575757569
aF0.57575757575757569
aF0.52777777777777779
aF0.58461538461538465
aF0.57575757575757569
aF0.58461538461538465
aF0.53521126760563376
aF0.40860215053763443
aF0.60317460317460314
aF0.60317460317460314
aF0.52054794520547942
aF0.53521126760563376
aF0.40860215053763443
aF0.50666666666666671
aF0.70370370370370372
aF0.6333333333333333
aF0.66666666666666663
aF0.66666666666666663
aF0.55072463768115942
aF0.55882352941176472
aF0.54285714285714282
aF0.56716417910447758
aF0.52054794520547942
aF0.52054794520547942
aF0.52054794520547942
aF0.52054794520547942
aF0.53521126760563376
aF0.58461538461538465
aF0.54285714285714282
aF0.53521126760563376
aF0.54285714285714282
aF0.54285714285714282
aF0.56716417910447758
aF0.50666666666666671
aF0.90476190476190466
aF0.40425531914893614
aF0.62295081967213106
aF0.7599999999999999
asS'between_centr_undir'
p20
(lp21
F14.906656628395757
aF14.906656628395757
aF14.906656628395757
aF0.83448275862068977
aF7.8505267849268652
aF5.8505267849268643
aF8.4648124992125791
aF0.6078954570333881
aF1.5931535855448899
aF15.901933711333792
aF13.809181610493457
aF0.91067323481116591
aF1.9654351395730705
aF1.5931535855448899
aF0.11781609195402298
aF54.098683774995621
aF21.884915659053593
aF34.485384634522568
aF26.153638602776528
aF2.5492374483753797
aF4.5492374483753792
aF3.6845909837289144
aF6.2480830472209785
aF0.32247295469912096
aF0.32247295469912096
aF0.32247295469912096
aF0.32247295469912096
aF1.5427110499372161
aF6.7947673269934921
aF1.2788221610483272
aF1.1052110499372163
aF1.2788221610483272
aF1.2788221610483272
aF5.2490602562864224
aF0.10000000000000001
aF149.75208298734512
aF13.67640692640693
aF70.792836752619365
aF80.987232620320853
asS'multi_page_rank_rev'
p22
(lp23
F0.055187560505345852
aF0.019349257908079433
aF0.13348159352092198
aF0.0090104070699158541
aF0.027462067601546035
aF0.034384665822864535
aF0.042695943998698561
aF0.010156475591172201
aF0.0081820323097986803
aF0.054820149259189078
aF0.022351964403447059
aF0.019340085510261146
aF0.012450614456866158
aF0.0081820323097986803
aF0.01070318148677124
aF0.032152264318375874
aF0.026529811967531479
aF0.026603001275229937
aF0.026432277044085496
aF0.011927993268139717
aF0.011981582108274796
aF0.0081927723589248803
aF0.008190646630198823
aF0.0081896181937747836
aF0.0081896181937747836
aF0.0081896181937747836
aF0.0081896181937747836
aF0.0093214339883522512
aF0.01051023805120317
aF0.008190646630198823
aF0.008190646630198823
aF0.008190646630198823
aF0.008190646630198823
aF0.01051023805120317
aF0.0081874924650487263
aF0.060905559241617939
aF0.19891359043449344
aF0.0081810038733746409
aF0.0081810038733746409
asS'multi_page_rank'
p24
(lp25
F0.013725974196823478
aF0.011565503392682882
aF0.018529491871025039
aF0.013062928656961601
aF0.01489756384213713
aF0.017438340798650542
aF0.015115577318846034
aF0.011477088146940853
aF0.011383691167446334
aF0.017163699538277066
aF0.013207585096145003
aF0.025478697502790928
aF0.012173410026985123
aF0.011383691167446334
aF0.013680155231696644
aF0.012875720322286718
aF0.01358825993240504
aF0.014701028069152985
aF0.011867214231050532
aF0.011532041362288255
aF0.012067610222403533
aF0.011709373110252771
aF0.013162750455395675
aF0.012780719157784821
aF0.012780719157784821
aF0.012780719157784821
aF0.012780719157784821
aF0.020735052161787615
aF0.015009594003276377
aF0.012780719157784821
aF0.012594223478770062
aF0.012780719157784821
aF0.012780719157784821
aF0.014860276722130005
aF0.017916191128217698
aF0.15047811901612201
aF0.011382724081141885
aF0.16906472495127262
aF0.17670666469269741
asS'close_centr'
p26
(lp27
F0.49410163339382934
aF0.49410163339382934
aF0.49410163339382934
aF0.34174964438122335
aF0.46832358674463936
aF0.48120300751879697
aF0.48633603238866396
aF0.41458153580672996
aF0.026315789473684209
aF0.48633603238866396
aF0.44367497691597413
aF0.41458153580672996
aF0.39514802631578949
aF0.026315789473684209
aF0.36127819548872181
aF0.47715988083416083
aF0.45159774436090228
aF0.45159774436090228
aF0.45980861244019139
aF0.35618977020014819
aF0.35618977020014819
aF0.32011992005329781
aF0.32011992005329781
aF0.31611842105263155
aF0.31611842105263155
aF0.31611842105263155
aF0.31611842105263155
aF0.31611842105263155
aF0.33275623268698062
aF0.32011992005329781
aF0.32011992005329781
aF0.32011992005329781
aF0.32011992005329781
aF0.33275623268698062
aF0.31221572449642626
aF0.47715988083416083
aF0.40000000000000002
aF0
aF0
asS'out_degree'
p28
(lp29
I9
aI9
aI9
aI3
aI9
aI9
aI10
aI5
aI1
aI11
aI8
aI7
aI4
aI1
aI4
aI16
aI13
aI14
aI14
aI6
aI6
aI3
aI3
aI2
aI2
aI2
aI2
aI3
aI4
aI3
aI3
aI3
aI3
aI4
aI1
aI10
aI5
aI0
aI0
as.