(dp1
S'impact_scores'
p2
(lp3
F0.32341129931584256
aF0.20386766037847703
aF0.077206609667345813
aF0.39250795922363008
aF0.5725442245250657
aF0.16569082331277638
aF0.32527777518348427
aF0.32553423106914131
aF0.066345082875052419
aF0.077876866522439081
aF0.042612239914757891
aF0.30480514024239846
aF0.04622165704586912
aF0.20738757585826886
aF0.25560169621555379
aF0.077383815370086748
aF0.034596475631998483
aF0.032886765671700798
aF0.14881934788786663
aF0.04777864523465529
aF0.13914938366310317
aF0.093995925088461524
aF0.24330134390715871
aF0.059878051720305588
aF0.025369924788929594
aF0.21114106241304015
aF0.28710732690775886
aF0.15275527319957369
aF0.13230691769427805
aF0.041732989717833485
aF0.12283618271919412
aF0.075758378409969018
aF0.045231574802077533
aF0.16847130031724497
aF0.053990159781456312
aF0.091154091034496634
aF0.01874091512026577
aF0.022056010654994344
aF0.021504121447197381
aF0.021311965204491905
aF0.021907680756548947
aF0.022021239028123162
aF0.22599568905818543
aF0.022402274697074207
aF0.022402274697074207
aF0.022402274697074207
asS'degree'
p4
(lp5
I8
aI10
aI10
aI4
aI10
aI6
aI12
aI18
aI18
aI20
aI13
aI13
aI8
aI20
aI19
aI10
aI8
aI9
aI16
aI11
aI17
aI27
aI34
aI20
aI6
aI25
aI40
aI38
aI28
aI18
aI9
aI8
aI24
aI31
aI19
aI12
aI12
aI7
aI16
aI14
aI15
aI15
aI70
aI9
aI1
aI42
asS'node_ids'
p6
(lp7
I1
aI2
aI3
aI4
aI5
aI6
aI7
aI8
aI9
aI10
aI11
aI12
aI13
aI14
aI15
aI16
aI17
aI18
aI19
aI20
aI21
aI22
aI23
aI24
aI25
aI26
aI27
aI28
aI29
aI30
aI31
aI32
aI33
aI34
aI35
aI36
aI37
aI38
aI39
aI40
aI41
aI42
aI43
aI44
aI45
aI46
asS'throughflow'
p8
(lp9
F124.31999999999999
aF12.2196
aF2.2362009999999999
aF1024.182
aF2770.1999999999998
aF96.485990000000001
aF25.524123000000003
aF355.875
aF3.9319590000000004
aF6.8479639999999993
aF0.63170800000000005
aF37.330443000000002
aF0.56840000000000002
aF29.335799999999999
aF125.30318
aF0.22
aF0.091999999999999998
aF0.071999999999999995
aF7.3200000000000003
aF1.6558489999999999
aF8.7000010000000003
aF1.1960010000000001
aF6.0813930000000003
aF0.76000000000000001
aF0.047500000000000001
aF24.241015000000001
aF34.873057000000003
aF3.9661719999999989
aF1.5599979999999998
aF0.62885599999999986
aF17.6904
aF2.4936639999999999
aF0.18600099999999997
aF3.0332379999999994
aF0.13999999999999999
aF0.25939499999999999
aF0.0014409999999999998
aF0.0012009999999999998
aF0.00023899999999999998
aF0.00023899999999999995
aF0.00023999999999999995
aF0.00024000000000000001
aF2092.0814660000001
aI0
aF1707.5319999999999
aF2322.5536459999998
asS'in_degree'
p10
(lp11
I1
aI1
aI1
aI1
aI1
aI1
aI2
aI2
aI4
aI4
aI4
aI4
aI1
aI2
aI2
aI2
aI1
aI1
aI1
aI1
aI1
aI15
aI20
aI11
aI2
aI11
aI27
aI29
aI16
aI7
aI3
aI1
aI20
aI27
aI15
aI6
aI10
aI5
aI14
aI12
aI13
aI13
aI42
aI0
aI1
aI42
asS'biomass'
p12
(lp13
F0.33600000000000002
aF1.8
aF0.37269999999999998
aF204.8365
aF7.6950000000000003
aF16.079999999999998
aF0.34799999999999998
aF54.75
aF0.109221
aF0.23599999999999999
aF0.071785000000000002
aF2.4886900000000001
aF0.056000000000000001
aF3.2595000000000001
aF5.2209000000000003
aF0.021999999999999999
aF0.0080000000000000002
aF0.0060000000000000001
aF0.60999999999999999
aF0.1273
aF0.59999999999999998
aF0.051999999999999998
aF0.35460000000000003
aF0.040000000000000001
aF0.0025000000000000001
aF0.86575000000000002
aF1.08978
aF0.13220000000000001
aF0.13
aF0.019290000000000002
aF1.6848000000000001
aF0.33510000000000001
aF0.059999999999999998
aF0.314
aF0.02
aF0.030516999999999999
aF0.0060000000000000001
aF0.0050000000000000001
aF0.001
aF0.001
aF0.001
aF0.001
aF527.3057
aF0
aF0
aF0
asS'page_rank'
p14
(lp15
F0.0063684674241076917
aF0.0063684674241076917
aF0.0063684674241076917
aF0.0063684674241076917
aF0.0063684674241076917
aF0.0063684674241076917
aF0.0072046023617793227
aF0.010327685883944145
aF0.011530581585802932
aF0.011530581585802932
aF0.011530581585802932
aF0.011530581585802932
aF0.0097262380330147506
aF0.010499528127066829
aF0.010499528127066829
aF0.010499528127066829
aF0.0097262380330147506
aF0.0097262380330147506
aF0.0097262380330147506
aF0.0097262380330147506
aF0.0097262380330147506
aF0.023716806273636457
aF0.030390192011799832
aF0.020050874896209159
aF0.010327685883944145
aF0.017095789064102487
aF0.047098770672972634
aF0.042711291142940998
aF0.023748989733226967
aF0.013124743460852038
aF0.011111906798541311
aF0.0064313122677272447
aF0.035323126676605282
aF0.074211396734519611
aF0.050514155553956233
aF0.015895816717567433
aF0.019478013538854588
aF0.014376215518996167
aF0.021289075022427363
aF0.016840852323768699
aF0.02147693596564795
aF0.020108157708385754
aF0.12870564434558987
aF0.0058189335962527617
aF0.0097262380330147506
aF0.12870564434558987
asS'between_centr'
p16
(lp17
F4.3295095182595178
aF2.7975330225330226
aF2.7975330225330226
aF0.79619949494949493
aF3.5233372183372182
aF1.3610392385392385
aF1.9717948717948719
aF4.8253677803677775
aF7.9998829873829864
aF9.0029132904132911
aF2.1285726310726307
aF2.1285726310726307
aF0.33670033670033672
aF5.7561217486217462
aF4.9171794409294405
aF0.77235690235690235
aF0.33548280423280419
aF0.62407407407407411
aF1.6806293243793244
aF0.71494708994708989
aF1.6806293243793244
aF4.9570182132682117
aF15.890053927553922
aF6.5544124856624872
aF0.1810185185185185
aF9.2840023402523411
aF34.708818773818777
aF17.721608761608756
aF8.5721967846967875
aF1.2855896418396418
aF1.1824074074074076
aF0.125
aF0.57268518518518519
aF3.7599831649831645
aF0.125
aF0.49305555555555558
aF0.63161616161616163
aF0.65013468013468012
aF0
aF0
aF0
aF0
aF480.32502164502171
aF0
aF0
aF0
asS'close_centr_undir'
p18
(lp19
F0.54878048780487809
aF0.5625
aF0.5625
aF0.5232558139534883
aF0.5625
aF0.5357142857142857
aF0.5625
aF0.61643835616438358
aF0.61643835616438358
aF0.63380281690140849
aF0.57692307692307687
aF0.57692307692307687
aF0.54216867469879515
aF0.63380281690140849
aF0.625
aF0.55555555555555558
aF0.5357142857142857
aF0.54878048780487809
aF0.59999999999999998
aF0.55555555555555558
aF0.60810810810810811
aF0.67164179104477606
aF0.72580645161290325
aF0.60810810810810811
aF0.52941176470588236
aF0.68181818181818188
aF0.8035714285714286
aF0.8035714285714286
aF0.703125
aF0.61643835616438358
aF0.54878048780487809
aF0.54878048780487809
aF0.66176470588235292
aF0.7142857142857143
aF0.60810810810810811
aF0.569620253164557
aF0.57692307692307687
aF0.5357142857142857
aF0.59999999999999998
aF0.5844155844155845
aF0.59210526315789469
aF0.59210526315789469
aF0.95744680851063824
aF0.51136363636363635
aF0.49450549450549453
aF0.91836734693877564
asS'between_centr_undir'
p20
(lp21
F3.8947907500071759
aF3.7522892171338347
aF3.7522892171338347
aF0.88003181613059511
aF5.8364939013385166
aF1.4646722034901833
aF1.9678571428571427
aF6.6626864164322539
aF8.5376378816029224
aF10.559359215824255
aF3.0981462981462982
aF3.0981462981462982
aF0.2014652014652015
aF10.856195712660751
aF9.4450097288332593
aF1.1609307359307359
aF0.18154761904761904
aF0.40873015873015872
aF2.4321720223912227
aF0.75577200577200565
aF2.79635269466013
aF10.647830791726467
aF25.046031202426878
aF12.534910843873114
aF0.28373015873015872
aF15.082767288205693
aF55.78527820526989
aF57.249221040397529
aF19.641945990253426
aF2.3734450467524826
aF0.90638528138528118
aF0.43019480519480524
aF12.482336127924365
aF42.210632267596758
aF7.5169733044733045
aF1.36445123503947
aF7.1563306822047101
aF1.6175569004925274
aF3.5984856646621348
aF2.6556974887857239
aF2.3938208849973552
aF1.9556285218049925
aF178.20809713624647
aF7.9075757575757564
aF0
aF134.20809713624644
asS'multi_page_rank_rev'
p22
(lp23
F0.032714547744073071
aF0.013709936899214955
aF0.012068889990153481
aF0.040006590711927081
aF0.12041675978381179
aF0.011512275148865039
aF0.019952914898534794
aF0.030810404949552003
aF0.01332757559298366
aF0.014371891774906213
aF0.0092515106873241083
aF0.010331967755007143
aF0.0088639408957638111
aF0.016707551604756246
aF0.021056179219346893
aF0.009108199532841494
aF0.0090410689285433596
aF0.0094346390217542007
aF0.01318328445906413
aF0.010120932357117664
aF0.013923046305899401
aF0.01080769378915189
aF0.012533983091338732
aF0.01010891034488889
aF0.0076780811026926042
aF0.014107198740820656
aF0.014374216649988468
aF0.010246525544971938
aF0.010808729514260196
aF0.010305300350122268
aF0.0085334090733534904
aF0.0087475438218492293
aF0.0074162135753183377
aF0.0077654433629184595
aF0.007735987168707094
aF0.008169809894103177
aF0.0070775656255941729
aF0.0070775656255941729
aF0.0070775656255941729
aF0.0070775656255941729
aF0.0070775656255941729
aF0.0070775656255941729
aF0.149021993583032
aF0.20515495371384498
aF0.0070522523318160271
aF0.0070522523318160271
asS'multi_page_rank'
p24
(lp25
F0.0088414061560844401
aF0.0086379668929494058
aF0.0086196719951854642
aF0.01047550642435986
aF0.013645646308896114
aF0.0087909122382559598
aF0.010937372800156598
aF0.019436823902016925
aF0.0094871210431371877
aF0.0097450810338854752
aF0.0094542054084227767
aF0.012668344185056909
aF0.0086608744736135206
aF0.01029276177708751
aF0.015784770567278401
aF0.008662086000007084
aF0.0086380778466678184
aF0.0086380778466678184
aF0.0090484171316904394
aF0.0087292643544506238
aF0.0091168070125275426
aF0.016516336994551233
aF0.022025089731401683
aF0.012331224459052499
aF0.0086397643479626043
aF0.01352316471042244
aF0.030574569724287699
aF0.023918231325481102
aF0.016269044950858978
aF0.0097255470631646725
aF0.010220013904147302
aF0.009544899906479179
aF0.020574750696073049
aF0.035777367950619185
aF0.024363583725947435
aF0.011118131337058614
aF0.012316804512188587
aF0.0090485758058426614
aF0.014919125658837299
aF0.013469191464907238
aF0.014877124953892295
aF0.013870306995719396
aF0.13970367006540774
aF0.0086152812197221179
aF0.10520458958865009
aF0.18454241350892697
asS'close_centr'
p26
(lp27
F0.47605633802816905
aF0.46803418803418806
aF0.46803418803418806
aF0.4002923976608187
aF0.46803418803418806
aF0.43460317460317455
aF0.4718954248366013
aF0.51428571428571435
aF0.49655172413793103
aF0.51428571428571435
aF0.45714285714285713
aF0.45714285714285713
aF0.44307692307692303
aF0.53333333333333333
aF0.52363636363636368
aF0.44999999999999996
aF0.44307692307692303
aF0.44999999999999996
aF0.50526315789473686
aF0.46451612903225808
aF0.51428571428571435
aF0.47213114754098368
aF0.48813559322033895
aF0.44999999999999996
aF0.41142857142857148
aF0.49655172413793103
aF0.47213114754098368
aF0.44307692307692303
aF0.47999999999999998
aF0.47213114754098368
aF0.42985074626865671
aF0.44738562091503264
aF0.41739130434782606
aF0.38399999999999995
aF0.38399999999999995
aF0.42985074626865671
aF0.37894736842105264
aF0.37402597402597404
aF0.37894736842105264
aF0.37894736842105264
aF0.37894736842105264
aF0.37894736842105264
aF0.65454545454545454
aF0.44999999999999996
aF0
aF0
asS'out_degree'
p28
(lp29
I7
aI9
aI9
aI3
aI9
aI5
aI10
aI16
aI14
aI16
aI9
aI9
aI7
aI18
aI17
aI8
aI7
aI8
aI15
aI10
aI16
aI12
aI14
aI9
aI4
aI14
aI13
aI9
aI12
aI11
aI6
aI7
aI4
aI4
aI4
aI6
aI2
aI2
aI2
aI2
aI2
aI2
aI28
aI9
aI0
aI0
as.