(dp1
S'impact_scores'
p2
(lp3
F0.028627275813213737
aF0.028623243967780716
aF0.028623634467948307
aF0.028621791158321929
aF0.028623214619804896
aF0.02863151813860542
aF0.028631552674287176
aF0.028624491426861281
aF0.028625626760613622
aF0.029314908962600424
aF0.028745792649885641
aF0.028647950748893727
aF0.028748163005771182
aF0.0286857446110018
aF0.028611082497464586
aF0.028892706859432214
aF0.028687008110689499
aF0.028709043626714361
aF0.036926536909320809
aF0.033065112822998351
aF0.040385092499445517
aF0.028955743149635265
aF0.029505860385412232
aF0.044798399423561439
aF0.045180686081159403
aF0.056125697245924616
aF0.050418906432620883
aF0.028792875769762614
aF0.028672679163391151
aF0.034378673642413683
aF0.071445786234612341
aF0.18914572579324826
aF4.816858487549085e-05
aF0.028619597156304005
aF0.028619597156304005
asS'degree'
p4
(lp5
I12
aI16
aI10
aI7
aI8
aI9
aI15
aI7
aI12
aI11
aI8
aI8
aI10
aI14
aI10
aI17
aI10
aI7
aI18
aI11
aI18
aI8
aI7
aI19
aI13
aI8
aI6
aI5
aI5
aI7
aI15
aI47
aI3
aI28
aI31
asS'node_ids'
p6
(lp7
I1
aI2
aI3
aI4
aI5
aI6
aI7
aI8
aI9
aI10
aI11
aI12
aI13
aI14
aI15
aI16
aI17
aI18
aI19
aI20
aI21
aI22
aI23
aI24
aI25
aI26
aI27
aI28
aI29
aI30
aI31
aI32
aI33
aI34
aI35
asS'throughflow'
p8
(lp9
F668.26865999999995
aF228.41999999999999
aF596
aF155
aF800
aF755
aF218.39999999999995
aF650
aF312.40000000000003
aF1104
aF870
aF240
aF1431
aF2000
aF4440
aF2751
aF864
aF1952
aF35680
aF57000
aF42000
aF3180
aF617.89999999999998
aF211462.99999999997
aF65160
aF153000
aF400000
aF80000
aF747600
aF144760
aF544635.59999999998
aF1412114.0996000003
aI0
aF77834.069000000003
aF616231.90090000001
asS'in_degree'
p10
(lp11
I9
aI11
aI5
aI3
aI4
aI3
aI12
aI3
aI6
aI4
aI2
aI2
aI2
aI5
aI5
aI7
aI6
aI2
aI6
aI4
aI4
aI3
aI3
aI5
aI4
aI4
aI1
aI1
aI1
aI1
aI1
aI32
aI0
aI28
aI31
asS'biomass'
p12
(lp13
F251
aF141
aF149
aF31
aF160
aF151
aF84
aF130
aF44
aF184
aF145
aF40
aF135
aF200
aF300
aF393
aF120
aF244
aF4460
aF1140
aF1400
aF106
aF16.699999999999999
aF1510.45
aF362
aF90
aF1000
aF200
aF600
aF330
aF3800
aF253400
aF0
aF0
aF0
asS'page_rank'
p14
(lp15
F0.034642683343199504
aF0.037984332299231809
aF0.021230178641596077
aF0.015406209987234151
aF0.017760251157810578
aF0.017273899042111667
aF0.044351144067853697
aF0.015201144553245458
aF0.022530162204635728
aF0.016122957893353433
aF0.017262048588634085
aF0.017883578794722084
aF0.01199374880992855
aF0.022680521133620388
aF0.022862467445088422
aF0.027694208827595448
aF0.0208326847411048
aF0.013029049694137065
aF0.02428591836492525
aF0.021073667220435438
aF0.021209314066995624
aF0.016714192060280901
aF0.014417208567933486
aF0.022862467445088422
aF0.025657276565841616
aF0.026311643207243982
aF0.016495419920925663
aF0.016495419920925663
aF0.016495419920925663
aF0.01262692077895017
aF0.01262692077895017
aF0.11747449599968854
aF0.0098389612684237088
aF0.1139869461982006
aF0.11468653648916208
asS'between_centr'
p16
(lp17
F0
aF3.1287878787878785
aF0.40854978354978355
aF0.33712121212121215
aF0.45021645021645018
aF1.8835497835497834
aF0.087121212121212127
aF0.087121212121212127
aF0.80833333333333335
aF3.492261904761905
aF6.2079365079365072
aF6.1486111111111104
aF1.5299603174603171
aF10.26533189033189
aF5.3113636363636365
aF20.97027417027417
aF2.1585497835497836
aF1.2936507936507935
aF29.50600649350649
aF9.8603174603174573
aF35.122258297258298
aF2.6936507936507939
aF0.25
aF37.380952380952372
aF33.111904761904768
aF1.7023809523809523
aF0.035714285714285712
aF0.035714285714285712
aF0.035714285714285712
aF1.9177128427128425
aF6.173268398268398
aF330.10566378066386
aF0
aF0
aF0
asS'close_centr_undir'
p18
(lp19
F0.60714285714285721
aF0.65384615384615385
aF0.5862068965517242
aF0.55737704918032782
aF0.56666666666666665
aF0.57627118644067798
aF0.64150943396226412
aF0.55737704918032782
aF0.5862068965517242
aF0.59649122807017541
aF0.55737704918032782
aF0.55737704918032782
aF0.5862068965517242
aF0.61818181818181817
aF0.57627118644067798
aF0.65384615384615385
aF0.5862068965517242
aF0.55737704918032782
aF0.66666666666666663
aF0.5862068965517242
aF0.66666666666666663
aF0.56666666666666665
aF0.55737704918032782
aF0.65384615384615385
aF0.60714285714285721
aF0.55737704918032782
aF0.53968253968253965
aF0.53125
aF0.53125
aF0.55737704918032782
aF0.64150943396226412
aF0.97142857142857153
aF0.52307692307692311
aF0.84999999999999998
aF0.91891891891891897
asS'between_centr_undir'
p20
(lp21
F3.6109617682198327
aF9.7712181784762429
aF1.2033610356191002
aF0.5271705594286239
aF0.66050389276195731
aF1.1311388133968781
aF7.1688372260952917
aF0.21764674990481442
aF2.4673109745690391
aF2.721676053934118
aF0.61493002218808668
aF0.57723160948967389
aF2.1581839904420552
aF4.1636784959365603
aF2.1815966888547536
aF8.7751864324444959
aF2.0339165911746555
aF0.78715224441030884
aF11.470353302611368
aF2.3584485407066054
aF11.508051715309778
aF1.0276284348864992
aF0.21215224441030889
aF12.178361035619098
aF6.0883427206007861
aF1.3192951015531662
aF0.069295101553166066
aF0.069295101553166066
aF0.069295101553166066
aF2.3179723502304146
aF14.125980083238147
aF115.66462148962151
aF0.16666666666666666
aF69.459126984126996
aF92.123412698412722
asS'multi_page_rank_rev'
p22
(lp23
F0.0072061725206852304
aF0.0081165600753224116
aF0.0083172321826261442
aF0.007679052078841694
aF0.0078242067944009983
aF0.0087636883022669532
aF0.0071717476639880737
aF0.0076989997790766936
aF0.0089638191539420323
aF0.011355963914118274
aF0.010414115501560291
aF0.0090823276298547442
aF0.010130881521974593
aF0.010401371889951438
aF0.008580696708896194
aF0.012455686270768596
aF0.0084461166261208791
aF0.0082712550231820534
aF0.034086953432419256
aF0.019732400140069967
aF0.036128514364754435
aF0.010003028851010497
aF0.008092109614426312
aF0.062293923430885433
aF0.020248778874561061
aF0.023772960960403176
aF0.055689843681279633
aF0.015726609239245803
aF0.092854966887837995
aF0.02621419652162808
aF0.10378104172131669
aF0.1979968929783375
aF0.11818568366141412
aF0.0071561010014163868
aF0.0071561010014163868
asS'multi_page_rank'
p24
(lp25
F0.017998144229595489
aF0.013825889972030936
aF0.0097155968529235668
aF0.0090434067316578024
aF0.0096172379008173207
aF0.010370128994534968
aF0.017039957221784238
aF0.0093573492162517986
aF0.013157430271047273
aF0.010045304327841892
aF0.0090075621351099235
aF0.009003909600783077
aF0.0090950596478894911
aF0.0093272275962218154
aF0.0093011966771475649
aF0.011138614062824832
aF0.010565557174270521
aF0.0091007276747643862
aF0.012951323204098333
aF0.015965242038915001
aF0.013454317147137558
aF0.012769182408487621
aF0.0090179573743745644
aF0.023050489636516458
aF0.01759984127182309
aF0.032028010487375358
aF0.066046719472689516
aF0.020384028306570288
aF0.11564994643327896
aF0.010558981928757902
aF0.014951305849340939
aF0.23707894641260888
aF0.0089683555150394684
aF0.037566003548014482
aF0.15524904867747469
asS'close_centr'
p26
(lp27
F0.38718775181305404
aF0.40963341858482527
aF0.41565743944636679
aF0.39809444904722457
aF0.40963341858482527
aF0.42186128182616334
aF0.38718775181305404
aF0.39809444904722457
aF0.40963341858482527
aF0.43484162895927603
aF0.42186128182616334
aF0.42186128182616334
aF0.47906281156530411
aF0.47107843137254907
aF0.41565743944636679
aF0.47906281156530411
aF0.41565743944636679
aF0.44864612511671337
aF0.50472689075630262
aF0.47906281156530411
aF0.54355203619909509
aF0.42825311942959005
aF0.40963341858482527
aF0.56529411764705884
aF0.49587203302373584
aF0.40378151260504197
aF0.40963341858482527
aF0.38718775181305404
aF0.38718775181305404
aF0.50196078431372548
aF0.60235294117647054
aF0.60137672090112648
aF0.44736842105263158
aF0
aF0
asS'out_degree'
p28
(lp29
I3
aI5
aI5
aI4
aI4
aI6
aI3
aI4
aI6
aI7
aI6
aI6
aI8
aI9
aI5
aI10
aI4
aI5
aI12
aI7
aI14
aI5
aI4
aI14
aI9
aI4
aI5
aI4
aI4
aI6
aI14
aI15
aI3
aI0
aI0
as.