(dp1
S'impact_scores'
p2
(lp3
F0.11051650894888308
aF0.18539808037399702
aF0.18623866291841601
aF0.021294816417474532
aF0.23709097723863037
aF0.0876518694041174
aF0.065693225648764508
aF0.05260119460602998
aF0.034840018155157949
aF0.01742170449128053
aF0.010793197248641837
aF0.24255864114075487
aF0.018420554017599816
aF0.13374589770824732
aF0.025592254706128234
aF1.1084940409153293e-05
aF0.067858627036309752
aF0.040769096884326068
aF0.077406901828937197
aF0.026521964368341734
aF0.10420030438686573
aF0.008286674200831394
aF0.043504436185096133
aF0.039872302000701361
aF0.085717309207146375
aF0.019776277689443619
aF0.055667789403955788
aF0.12301237699297997
aF0.0015471830807659392
aF0.0019886743777016822
aF0.018594356403995274
aF0.019798755054641019
aF0.049079424269404939
aF0.0044403486844332681
aF0.003907300612349434
aF0.00032880680166188044
aF0.0098471534006134044
aF0.061478517402712936
aF0.00016013913763199421
aF0.011431894593878708
aF0.0034398489003434137
aF0.0016923856754488648
aF3.0866641145320532e-06
aF0.0052460955857085052
aF0.0028117236907811908
aF0.00017782744507927438
aF0.00029096254233706271
aF0.00015253081563415557
aF0.027187356196312368
aF0.00022879324956523618
aF0.25905756730510704
aF1.3079337439288175e-11
aF1.3079337439288207e-11
aF1.3079337439288207e-11
asS'degree'
p4
(lp5
I8
aI12
aI13
aI6
aI19
aI6
aI9
aI15
aI19
aI13
aI9
aI19
aI15
aI19
aI18
aI5
aI14
aI7
aI20
aI9
aI6
aI6
aI13
aI19
aI13
aI17
aI21
aI12
aI4
aI7
aI11
aI4
aI10
aI9
aI14
aI10
aI14
aI19
aI11
aI15
aI14
aI14
aI6
aI12
aI5
aI13
aI10
aI7
aI7
aI8
aI40
aI27
aI11
aI48
asS'node_ids'
p6
(lp7
I1
aI2
aI3
aI4
aI5
aI6
aI7
aI8
aI9
aI10
aI11
aI12
aI13
aI14
aI15
aI16
aI17
aI18
aI19
aI20
aI21
aI22
aI23
aI24
aI25
aI26
aI27
aI28
aI29
aI30
aI31
aI32
aI33
aI34
aI35
aI36
aI37
aI38
aI39
aI40
aI41
aI42
aI43
aI44
aI45
aI46
aI47
aI48
aI49
aI50
aI51
aI52
aI53
aI54
asS'throughflow'
p8
(lp9
F28.309999999999999
aF41.520000000000003
aF265.02999999999997
aF4.5199999999999996
aF169.94999999999999
aF32.25
aF15.999999899999999
aF1.4829999
aF13.694013
aF4.9279999999999999
aF1.8339999
aF247.684
aF14.840041899999999
aF96.970268000000004
aF10.304024799999999
aF0.55000129999999992
aF21.280042600000002
aF3.6400000000000001
aF21.570043699999999
aF1.4800013999999999
aF13.81
aF14.0000331
aF2.7370000000000001
aF3.3600041999999997
aF31.009041199999999
aF3.5650046
aF9.4090190000000007
aF9.23001
aF0.23999999999999999
aF1.1440000000000001
aF9.5900014999999996
aF1.4000022000000001
aF1.8630013000000001
aF0.28700010000000004
aF0.93000109999999991
aF0.080000100000000005
aF2.0100028999999999
aF5.3890048000000004
aF0.40000059999999998
aF0.86900040000000001
aF0.61000080000000001
aF0.16900009999999999
aF0.058000000000000003
aF0.40000070000000004
aF2.7900003
aF0.16900000000000001
aF1.2300001
aF0.19
aF69.260000000000005
aF21.790002900000001
aF271.17833930000006
aI0
aF120.33135039999999
aF466.97162309999999
asS'in_degree'
p10
(lp11
I1
aI1
aI1
aI1
aI1
aI1
aI4
aI4
aI5
aI4
aI3
aI2
aI4
aI4
aI4
aI3
aI4
aI3
aI10
aI6
aI2
aI3
aI3
aI13
aI5
aI5
aI10
aI9
aI1
aI2
aI8
aI2
aI5
aI5
aI9
aI7
aI8
aI9
aI9
aI8
aI11
aI9
aI4
aI9
aI3
aI11
aI8
aI5
aI5
aI5
aI38
aI0
aI11
aI48
asS'biomass'
p12
(lp13
F71.099990000000005
aF4963
aF230.90000000000001
aF94.579999999999998
aF1073.5
aF10.890000000000001
aF6.4199999999999999
aF2.7799990000000001
aF71.500079999999997
aF41.5
aF7.4599989999999998
aF262.25099999999998
aF90.130250000000004
aF1062.383
aF34.410089999999997
aF2.5100060000000002
aF248.01050000000001
aF37.020000000000003
aF226.9205
aF14.33001
aF64.530000000000001
aF375.0009
aF28.32
aF57.490070000000003
aF1102.7619999999999
aF54.630070000000003
aF296.68060000000003
aF437.99040000000002
aF6.8099999999999996
aF19.82
aF352.73009999999999
aF2.4100030000000001
aF59.020049999999998
aF8.9600019999999994
aF11.25001
aF0.81000130000000004
aF2.6000040000000002
aF89.030090000000001
aF2.3500040000000002
aF8.3900039999999994
aF35.360039999999998
aF2.2600009999999999
aF0.35000009999999998
aF1.8900030000000001
aF36.930010000000003
aF1.1699999999999999
aF7.1700020000000002
aF1.850001
aF4082.5
aF669.75009999999997
aF364501.79999999999
aF0
aF0
aF0
asS'page_rank'
p14
(lp15
F0.006799702565556987
aF0.006799702565556987
aF0.006799702565556987
aF0.006799702565556987
aF0.006799702565556987
aF0.010800785148843816
aF0.015758939695959873
aF0.012140606256626817
aF0.010403542082782932
aF0.012140606256626817
aF0.0085636859101711239
aF0.045502075938606321
aF0.01018334012299959
aF0.010575112869903982
aF0.01018334012299959
aF0.009975776905810415
aF0.010575112869903982
aF0.0079205088505065729
aF0.016383703819334308
aF0.015109329539456633
aF0.0075993645752642346
aF0.009975776905810415
aF0.007806927792453411
aF0.019286887726096963
aF0.010782676087093157
aF0.010782676087093157
aF0.016005997078559684
aF0.02349609616566254
aF0.007073855761231318
aF0.0072814189784204944
aF0.013349617905597463
aF0.0078422707686066438
aF0.011385895585317319
aF0.015957168956432663
aF0.015936531435170133
aF0.013534025494745274
aF0.013977047361928152
aF0.012572794308092775
aF0.013980267928496586
aF0.012665684432787681
aF0.02086830944888296
aF0.016067616411515752
aF0.010566240311314586
aF0.017632590496103974
aF0.0098038307831076078
aF0.029075661526570245
aF0.02203394421588821
aF0.019050464956989911
aF0.0099024278062878578
aF0.01350298281522146
aF0.091077183191295707
aF0.0065921393483678106
aF0.10468857836828896
aF0.13763006976698711
asS'between_centr'
p16
(lp17
F0.88518518518518519
aF0.8861952861952862
aF1.2611952861952862
aF0.36851851851851852
aF1.2822089947089947
aF28.819444444444443
aF62.703192640692642
aF50.34402356902357
aF117.54552068302065
aF34.295574795574801
aF8.8192039442039452
aF513.10998677248676
aF0.79351851851851851
aF19.137301587301586
aF25.784806397306397
aF0
aF24.69126984126984
aF0.91666666666666663
aF27.533244533244527
aF1.0714285714285714
aF0.66666666666666663
aF2.3875000000000011
aF4.6413540163540166
aF16.265008602508598
aF23.582028619528622
aF17.79790163540164
aF36.618826543826536
aF8.5833333333333321
aF0.16666666666666666
aF0.85601851851851851
aF2.4435185185185184
aF0.38461538461538464
aF9.1609968734968774
aF3.1499037999037998
aF7.9562604062604061
aF2.5971694971694972
aF14.974532412032412
aF28.80892394642396
aF1.0300699300699301
aF23.983527121027127
aF1.9346153846153846
aF10.290669978169976
aF0.66666666666666663
aF6.1083333333333334
aF0.43518518518518512
aF1.5268518518518521
aF1.2351851851851852
aF0.6601851851851851
aF12.819444444444443
aF85.492191142191146
aF523.52736291486303
aF0
aF0
aF0
asS'close_centr_undir'
p18
(lp19
F0.54081632653061229
aF0.56382978723404253
aF0.56989247311827951
aF0.53000000000000003
aF0.6091954022988505
aF0.53000000000000003
aF0.53000000000000003
aF0.58241758241758235
aF0.6091954022988505
aF0.56989247311827951
aF0.54639175257731953
aF0.5955056179775281
aF0.56989247311827951
aF0.5955056179775281
aF0.60227272727272729
aF0.52475247524752477
aF0.57608695652173914
aF0.53535353535353536
aF0.61627906976744184
aF0.54081632653061229
aF0.53000000000000003
aF0.53000000000000003
aF0.56989247311827951
aF0.6091954022988505
aF0.56989247311827951
aF0.5955056179775281
aF0.61627906976744184
aF0.55208333333333337
aF0.51960784313725494
aF0.53535353535353536
aF0.55789473684210522
aF0.5145631067961165
aF0.54639175257731953
aF0.53535353535353536
aF0.57608695652173914
aF0.54639175257731953
aF0.57608695652173914
aF0.6091954022988505
aF0.55789473684210522
aF0.58241758241758235
aF0.57608695652173914
aF0.57608695652173914
aF0.53000000000000003
aF0.56382978723404253
aF0.52475247524752477
aF0.56989247311827951
aF0.55208333333333337
aF0.53535353535353536
aF0.49532710280373826
aF0.53535353535353536
aF0.79104477611940305
aF0.67088607594936711
aF0.55789473684210522
aF0.91379310344827591
asS'between_centr_undir'
p20
(lp21
F6.1175459725459707
aF13.681750952339186
aF16.894449365037602
aF3.8601285551285551
aF31.766459299547545
aF3.2399689199689199
aF0.78333333333333333
aF22.93936748436748
aF23.825216080216073
aF18.610364430364427
aF4.9878125378125375
aF12.36950070258894
aF4.6380317630317638
aF10.702239037239037
aF13.079691214691213
aF0.12623337623337624
aF11.095966420966423
aF1.8032175032175033
aF21.304344007432235
aF2.6643286143286145
aF1.14988416988417
aF0.41194766194766197
aF8.054515279515277
aF17.795747603835839
aF8.3693448943448931
aF9.4007301757301747
aF18.554421337509574
aF6.2814642564642558
aF0.37702702702702706
aF1.5932765182765183
aF4.4043876293876298
aF0.14835055643879175
aF4.8902545402545394
aF2.5978302978302978
aF10.345395178483413
aF4.9555045135927482
aF8.6317255148137502
aF17.555819938908172
aF4.8596198427080779
aF12.190196673284907
aF7.0847780178662534
aF7.7306728637610993
aF2.6499999999999999
aF12.014565989565989
aF0.95370370370370372
aF9.4752804602804606
aF6.1734839234839223
aF3.3060846560846562
aF7.1095238095238091
aF5.9366013071895427
aF192.18645243645247
aF75.111278998779014
aF24.119937839937837
aF368.09024281274276
asS'multi_page_rank_rev'
p22
(lp23
F0.026968202655525391
aF0.028002695841017829
aF0.058137808458571819
aF0.008829588898921473
aF0.055894621215073846
aF0.015105245747076808
aF0.010695770392340844
aF0.012626988752189478
aF0.018882091231084169
aF0.011351275460899323
aF0.0075228115892472091
aF0.075893428076402814
aF0.010318620408439012
aF0.031190190327449456
aF0.014284125755210023
aF0.0063717953313576726
aF0.012847752102635012
aF0.0084585234534276764
aF0.011062114843951164
aF0.0066353732667471027
aF0.0085924734869766428
aF0.008467422800969706
aF0.012097733050200935
aF0.0086920508772380771
aF0.020807429252409713
aF0.010889193391897575
aF0.012203892814081015
aF0.0086844599327678944
aF0.0067880816754394974
aF0.0074485814877136248
aF0.0091482847015951323
aF0.0065529208801751483
aF0.0075828152324692822
aF0.0068843688113218058
aF0.0071667116935736587
aF0.006781710974386985
aF0.0079996822002038823
aF0.015179467170347936
aF0.0063805037618776201
aF0.0083213746581237598
aF0.0063978127175441518
aF0.0071922334456749441
aF0.006324747820525228
aF0.0070990309737913489
aF0.0063751649182820398
aF0.0063260959063477541
aF0.0063459931282859733
aF0.0063260959063477541
aF0.020810646725425597
aF0.0091249723317405676
aF0.062158338796350118
aF0.22512776742370891
aF0.0063214586223188304
aF0.0063214586223188304
asS'multi_page_rank'
p24
(lp25
F0.007361891444338413
aF0.0074963843803922065
aF0.0097815634635208173
aF0.0071181229977409074
aF0.0088094917515960051
aF0.011514350336187361
aF0.012257843380204615
aF0.0073017783965249527
aF0.0086567248992649171
aF0.008027297339978659
aF0.0081477723950439118
aF0.094518065451895825
aF0.010924593398912209
aF0.032733710048762452
aF0.0094196886217959297
aF0.0072322513908203174
aF0.011168734924669587
aF0.0075914131565322472
aF0.015445151728539821
aF0.0094441670273291561
aF0.0083464004240285817
aF0.010326541421891456
aF0.0073289379893107616
aF0.01113824638461999
aF0.011555995377573011
aF0.0075715851353430003
aF0.011804115594573013
aF0.021900339414221922
aF0.0070810882451061699
aF0.0070956509791303413
aF0.0083744945047560491
aF0.0079478605209733089
aF0.010335916148280371
aF0.0077607080922236929
aF0.0085417581529215574
aF0.007491174424290049
aF0.008984608389755986
aF0.009419795063207257
aF0.007724326552837002
aF0.0074345583030931668
aF0.0095298795278078267
aF0.0077289532079600756
aF0.0072516770220116319
aF0.008939959201685322
aF0.0078407358532031676
aF0.01244281952229364
aF0.0084355243921026037
aF0.0085946476564165153
aF0.011222709596909356
aF0.01813362312345369
aF0.13690050374889429
aF0.0070718910509724141
aF0.065168763096455667
aF0.20762321534764683
asS'close_centr'
p26
(lp27
F0.32604478927878683
aF0.41159307527718342
aF0.43041285260601531
aF0.27469915317189125
aF0.48704402515723266
aF0.29642038441192026
aF0.2847988608045568
aF0.31122349737405175
aF0.33542976939203356
aF0.30188679245283018
aF0.26481297583581592
aF0.41928721174004197
aF0.33174372797014307
aF0.33174372797014307
aF0.31777557100297915
aF0.2081977878985036
aF0.26251025430680885
aF0.2233590220568695
aF0.25157232704402516
aF0.21410410812257463
aF0.2265498652291105
aF0.2236198462613557
aF0.28573856875743664
aF0.22698255071641368
aF0.29027576197387517
aF0.30188679245283018
aF0.29596744358120608
aF0.21718474277182029
aF0.22179707085367464
aF0.27342225113858165
aF0.21410410812257463
aF0.20964360587002098
aF0.2304479331700994
aF0.21875854525567404
aF0.22698255071641368
aF0.21410410812257463
aF0.23959269242288109
aF0.26481297583581592
aF0.20964360587002098
aF0.23584905660377356
aF0.21110964507190921
aF0.22528865108420165
aF0.037735849056603772
aF0.056603773584905655
aF0.037735849056603772
aF0.037735849056603772
aF0.037735849056603772
aF0.037735849056603772
aF0.22641509433962267
aF0.25583626479053406
aF0.27696036004846802
aF0.66249999999999998
aF0
aF0
asS'out_degree'
p28
(lp29
I7
aI11
aI12
aI5
aI18
aI5
aI5
aI11
aI14
aI9
aI6
aI17
aI11
aI15
aI14
aI2
aI10
aI4
aI10
aI3
aI4
aI3
aI10
aI6
aI8
aI12
aI11
aI3
aI3
aI5
aI3
aI2
aI5
aI4
aI5
aI3
aI6
aI10
aI2
aI7
aI3
aI5
aI2
aI3
aI2
aI2
aI2
aI2
aI2
aI3
aI2
aI27
aI0
aI0
as.